
code5.elf:     file format elf32-bigmips


Disassembly of section .text.start:

10000000 <_entry>:
10000000:	3c051001 	lui	a1,0x1001
10000004:	24a555b0 	addiu	a1,a1,21936
10000008:	3c041009 	lui	a0,0x1009
1000000c:	24841144 	addiu	a0,a0,4420
10000010:	3c1c1001 	lui	gp,0x1001
10000014:	279c55a8 	addiu	gp,gp,21928
10000018:	3c1d2000 	lui	sp,0x2000
1000001c:	27bdfffc 	addiu	sp,sp,-4
10000020:	aca00000 	sw	zero,0(a1)
10000024:	00a4182a 	slt	v1,a1,a0
10000028:	24a50004 	addiu	a1,a1,4
1000002c:	1460fffc 	bnez	v1,10000020 <_entry+0x20>
10000030:	00000000 	nop
10000034:	0c000a3b 	jal	100028ec <main>
10000038:	00000000 	nop
1000003c:	3c1ae000 	lui	k0,0xe000
10000040:	af400000 	sw	zero,0(k0)
10000044:	1000ffff 	b	10000044 <_entry+0x44>
10000048:	00000000 	nop
	...

10000100 <_isr>:
10000100:	23bdff98 	addi	sp,sp,-104
10000104:	afa10010 	sw	at,16(sp)
10000108:	afa20014 	sw	v0,20(sp)
1000010c:	afa30018 	sw	v1,24(sp)
10000110:	afa4001c 	sw	a0,28(sp)
10000114:	afa50020 	sw	a1,32(sp)
10000118:	afa60024 	sw	a2,36(sp)
1000011c:	afa70028 	sw	a3,40(sp)
10000120:	afa8002c 	sw	t0,44(sp)
10000124:	afa90030 	sw	t1,48(sp)
10000128:	afaa0034 	sw	t2,52(sp)
1000012c:	afab0038 	sw	t3,56(sp)
10000130:	afac003c 	sw	t4,60(sp)
10000134:	afad0040 	sw	t5,64(sp)
10000138:	afae0044 	sw	t6,68(sp)
1000013c:	afaf0048 	sw	t7,72(sp)
10000140:	afb8004c 	sw	t8,76(sp)
10000144:	afb90050 	sw	t9,80(sp)
10000148:	afbf0054 	sw	ra,84(sp)
1000014c:	401a7000 	mfc0	k0,c0_epc
10000150:	235afffc 	addi	k0,k0,-4
10000154:	afba0058 	sw	k0,88(sp)
10000158:	0000d810 	mfhi	k1
1000015c:	afbb005c 	sw	k1,92(sp)
10000160:	0000d812 	mflo	k1
10000164:	afbb0060 	sw	k1,96(sp)
10000168:	3c052000 	lui	a1,0x2000
1000016c:	8ca40020 	lw	a0,32(a1)
10000170:	8ca60010 	lw	a2,16(a1)
10000174:	00862024 	and	a0,a0,a2
10000178:	0c00079d 	jal	10001e74 <_irq_handler>
1000017c:	27a50000 	addiu	a1,sp,0
10000180:	8fa10010 	lw	at,16(sp)
10000184:	8fa20014 	lw	v0,20(sp)
10000188:	8fa30018 	lw	v1,24(sp)
1000018c:	8fa4001c 	lw	a0,28(sp)
10000190:	8fa50020 	lw	a1,32(sp)
10000194:	8fa60024 	lw	a2,36(sp)
10000198:	8fa70028 	lw	a3,40(sp)
1000019c:	8fa8002c 	lw	t0,44(sp)
100001a0:	8fa90030 	lw	t1,48(sp)
100001a4:	8faa0034 	lw	t2,52(sp)
100001a8:	8fab0038 	lw	t3,56(sp)
100001ac:	8fac003c 	lw	t4,60(sp)
100001b0:	8fad0040 	lw	t5,64(sp)
100001b4:	8fae0044 	lw	t6,68(sp)
100001b8:	8faf0048 	lw	t7,72(sp)
100001bc:	8fb8004c 	lw	t8,76(sp)
100001c0:	8fb90050 	lw	t9,80(sp)
100001c4:	8fbf0054 	lw	ra,84(sp)
100001c8:	8fba0058 	lw	k0,88(sp)
100001cc:	8fbb005c 	lw	k1,92(sp)
100001d0:	03600011 	mthi	k1
100001d4:	8fbb0060 	lw	k1,96(sp)
100001d8:	03600013 	mtlo	k1
100001dc:	23bd0068 	addi	sp,sp,104

100001e0 <isr_return>:
100001e0:	341b0001 	li	k1,0x1
100001e4:	03400008 	jr	k0
100001e8:	409b6000 	mtc0	k1,c0_sr

100001ec <_interrupt_set>:
100001ec:	40026000 	mfc0	v0,c0_sr
100001f0:	40846000 	mtc0	a0,c0_sr
100001f4:	03e00008 	jr	ra
100001f8:	40846000 	mtc0	a0,c0_sr

100001fc <_interrupt_init>:
100001fc:	3c051000 	lui	a1,0x1000
10000200:	24a5022c 	addiu	a1,a1,556
10000204:	8ca60000 	lw	a2,0(a1)
10000208:	ac06003c 	sw	a2,60(zero)
1000020c:	8ca60004 	lw	a2,4(a1)
10000210:	ac060040 	sw	a2,64(zero)
10000214:	8ca60008 	lw	a2,8(a1)
10000218:	ac060044 	sw	a2,68(zero)
1000021c:	8ca6000c 	lw	a2,12(a1)
10000220:	ac060048 	sw	a2,72(zero)
10000224:	03e00008 	jr	ra
10000228:	00000000 	nop

1000022c <_irq_patch>:
1000022c:	3c1a1000 	lui	k0,0x1000
10000230:	275a0100 	addiu	k0,k0,256
10000234:	03400008 	jr	k0
10000238:	00000000 	nop

1000023c <_context_save>:
1000023c:	ac900000 	sw	s0,0(a0)
10000240:	ac910004 	sw	s1,4(a0)
10000244:	ac920008 	sw	s2,8(a0)
10000248:	ac93000c 	sw	s3,12(a0)
1000024c:	ac940010 	sw	s4,16(a0)
10000250:	ac950014 	sw	s5,20(a0)
10000254:	ac960018 	sw	s6,24(a0)
10000258:	ac97001c 	sw	s7,28(a0)
1000025c:	ac9e0020 	sw	s8,32(a0)
10000260:	ac9c0024 	sw	gp,36(a0)
10000264:	ac9d0028 	sw	sp,40(a0)
10000268:	ac9f002c 	sw	ra,44(a0)
1000026c:	03e00008 	jr	ra
10000270:	34020000 	li	v0,0x0

10000274 <_context_restore>:
10000274:	8c900000 	lw	s0,0(a0)
10000278:	8c910004 	lw	s1,4(a0)
1000027c:	8c920008 	lw	s2,8(a0)
10000280:	8c93000c 	lw	s3,12(a0)
10000284:	8c940010 	lw	s4,16(a0)
10000288:	8c950014 	lw	s5,20(a0)
1000028c:	8c960018 	lw	s6,24(a0)
10000290:	8c97001c 	lw	s7,28(a0)
10000294:	8c9e0020 	lw	s8,32(a0)
10000298:	8c9c0024 	lw	gp,36(a0)
1000029c:	8c9d0028 	lw	sp,40(a0)
100002a0:	8c9f002c 	lw	ra,44(a0)
100002a4:	341b0001 	li	k1,0x1
100002a8:	409b6000 	mtc0	k1,c0_sr
100002ac:	03e00008 	jr	ra
100002b0:	34a20000 	ori	v0,a1,0x0

Disassembly of section .text:

100002b4 <gaussian>:
100002b4:	3c021000 	lui	v0,0x1000
100002b8:	27bdffc8 	addiu	sp,sp,-56
100002bc:	24424984 	addiu	v0,v0,18820
100002c0:	03a01825 	move	v1,sp
100002c4:	24450030 	addiu	a1,v0,48
100002c8:	944d0000 	lhu	t5,0(v0)
100002cc:	944c0002 	lhu	t4,2(v0)
100002d0:	944b0004 	lhu	t3,4(v0)
100002d4:	944a0006 	lhu	t2,6(v0)
100002d8:	94490008 	lhu	t1,8(v0)
100002dc:	9448000a 	lhu	t0,10(v0)
100002e0:	9447000c 	lhu	a3,12(v0)
100002e4:	9446000e 	lhu	a2,14(v0)
100002e8:	24420010 	addiu	v0,v0,16
100002ec:	a46d0000 	sh	t5,0(v1)
100002f0:	a46c0002 	sh	t4,2(v1)
100002f4:	a46b0004 	sh	t3,4(v1)
100002f8:	a46a0006 	sh	t2,6(v1)
100002fc:	a4690008 	sh	t1,8(v1)
10000300:	a468000a 	sh	t0,10(v1)
10000304:	a467000c 	sh	a3,12(v1)
10000308:	a466000e 	sh	a2,14(v1)
1000030c:	1445ffee 	bne	v0,a1,100002c8 <gaussian+0x14>
10000310:	24630010 	addiu	v1,v1,16
10000314:	94420000 	lhu	v0,0(v0)
10000318:	27a90032 	addiu	t1,sp,50
1000031c:	a4620000 	sh	v0,0(v1)
10000320:	03a01825 	move	v1,sp
10000324:	00001025 	move	v0,zero
10000328:	2468000a 	addiu	t0,v1,10
1000032c:	00803025 	move	a2,a0
10000330:	90c50000 	lbu	a1,0(a2)
10000334:	84670000 	lh	a3,0(v1)
10000338:	24630002 	addiu	v1,v1,2
1000033c:	00a70018 	mult	a1,a3
10000340:	24c60001 	addiu	a2,a2,1
10000344:	00002812 	mflo	a1
10000348:	1503fff9 	bne	t0,v1,10000330 <gaussian+0x7c>
1000034c:	00451021 	addu	v0,v0,a1
10000350:	24840005 	addiu	a0,a0,5
10000354:	1528fff4 	bne	t1,t0,10000328 <gaussian+0x74>
10000358:	01001825 	move	v1,t0
1000035c:	2403009f 	li	v1,159
10000360:	0043001a 	div	zero,v0,v1
10000364:	27bd0038 	addiu	sp,sp,56
10000368:	00001012 	mflo	v0
1000036c:	03e00008 	jr	ra
10000370:	304200ff 	andi	v0,v0,0xff

10000374 <do_gaussian>:
10000374:	18e00057 	blez	a3,100004d4 <do_gaussian+0x160>
10000378:	00000000 	nop
1000037c:	27bdff90 	addiu	sp,sp,-112
10000380:	afb40058 	sw	s4,88(sp)
10000384:	0006a023 	negu	s4,a2
10000388:	0014a040 	sll	s4,s4,0x1
1000038c:	afb1004c 	sw	s1,76(sp)
10000390:	afa5003c 	sw	a1,60(sp)
10000394:	00a08825 	move	s1,a1
10000398:	24e5fffe 	addiu	a1,a3,-2
1000039c:	afbe0068 	sw	s8,104(sp)
100003a0:	afb60060 	sw	s6,96(sp)
100003a4:	afb5005c 	sw	s5,92(sp)
100003a8:	afb30054 	sw	s3,84(sp)
100003ac:	afb20050 	sw	s2,80(sp)
100003b0:	afb00048 	sw	s0,72(sp)
100003b4:	afb40040 	sw	s4,64(sp)
100003b8:	afbf006c 	sw	ra,108(sp)
100003bc:	afb70064 	sw	s7,100(sp)
100003c0:	00c0a825 	move	s5,a2
100003c4:	00808025 	move	s0,a0
100003c8:	afa70034 	sw	a3,52(sp)
100003cc:	00009025 	move	s2,zero
100003d0:	00001825 	move	v1,zero
100003d4:	00009825 	move	s3,zero
100003d8:	afa50038 	sw	a1,56(sp)
100003dc:	24d4fffe 	addiu	s4,a2,-2
100003e0:	27be0029 	addiu	s8,sp,41
100003e4:	24160005 	li	s6,5
100003e8:	2a620002 	slti	v0,s3,2
100003ec:	14400041 	bnez	v0,100004f4 <do_gaussian+0x180>
100003f0:	02431021 	addu	v0,s2,v1
100003f4:	8fa50038 	lw	a1,56(sp)
100003f8:	00000000 	nop
100003fc:	0265102a 	slt	v0,s3,a1
10000400:	1040003c 	beqz	v0,100004f4 <do_gaussian+0x180>
10000404:	02431021 	addu	v0,s2,v1
10000408:	1aa00022 	blez	s5,10000494 <do_gaussian+0x120>
1000040c:	00001825 	move	v1,zero
10000410:	8fa30040 	lw	v1,64(sp)
10000414:	0000b825 	move	s7,zero
10000418:	02431021 	addu	v0,s2,v1
1000041c:	2442fffe 	addiu	v0,v0,-2
10000420:	afa20030 	sw	v0,48(sp)
10000424:	2ae20002 	slti	v0,s7,2
10000428:	1440002c 	bnez	v0,100004dc <do_gaussian+0x168>
1000042c:	02f4102a 	slt	v0,s7,s4
10000430:	1040002b 	beqz	v0,100004e0 <do_gaussian+0x16c>
10000434:	02f21021 	addu	v0,s7,s2
10000438:	8fa50030 	lw	a1,48(sp)
1000043c:	27a60010 	addiu	a2,sp,16
10000440:	00b73821 	addu	a3,a1,s7
10000444:	02073821 	addu	a3,s0,a3
10000448:	00e01825 	move	v1,a3
1000044c:	00001025 	move	v0,zero
10000450:	90650000 	lbu	a1,0(v1)
10000454:	00c22021 	addu	a0,a2,v0
10000458:	24420001 	addiu	v0,v0,1
1000045c:	a0850000 	sb	a1,0(a0)
10000460:	1456fffb 	bne	v0,s6,10000450 <do_gaussian+0xdc>
10000464:	00751821 	addu	v1,v1,s5
10000468:	24c60005 	addiu	a2,a2,5
1000046c:	14defff6 	bne	a2,s8,10000448 <do_gaussian+0xd4>
10000470:	24e70001 	addiu	a3,a3,1
10000474:	0c0000ad 	jal	100002b4 <gaussian>
10000478:	27a40010 	addiu	a0,sp,16
1000047c:	02371821 	addu	v1,s1,s7
10000480:	a0620000 	sb	v0,0(v1)
10000484:	26f70001 	addiu	s7,s7,1
10000488:	16f5ffe7 	bne	s7,s5,10000428 <do_gaussian+0xb4>
1000048c:	2ae20002 	slti	v0,s7,2
10000490:	02a01825 	move	v1,s5
10000494:	8fa50034 	lw	a1,52(sp)
10000498:	26730001 	addiu	s3,s3,1
1000049c:	02559021 	addu	s2,s2,s5
100004a0:	1665ffd1 	bne	s3,a1,100003e8 <do_gaussian+0x74>
100004a4:	02358821 	addu	s1,s1,s5
100004a8:	8fbf006c 	lw	ra,108(sp)
100004ac:	8fbe0068 	lw	s8,104(sp)
100004b0:	8fb70064 	lw	s7,100(sp)
100004b4:	8fb60060 	lw	s6,96(sp)
100004b8:	8fb5005c 	lw	s5,92(sp)
100004bc:	8fb40058 	lw	s4,88(sp)
100004c0:	8fb30054 	lw	s3,84(sp)
100004c4:	8fb20050 	lw	s2,80(sp)
100004c8:	8fb1004c 	lw	s1,76(sp)
100004cc:	8fb00048 	lw	s0,72(sp)
100004d0:	27bd0070 	addiu	sp,sp,112
100004d4:	03e00008 	jr	ra
100004d8:	00000000 	nop
100004dc:	02f21021 	addu	v0,s7,s2
100004e0:	02021021 	addu	v0,s0,v0
100004e4:	90430000 	lbu	v1,0(v0)
100004e8:	02371021 	addu	v0,s1,s7
100004ec:	08000121 	j	10000484 <do_gaussian+0x110>
100004f0:	a0430000 	sb	v1,0(v0)
100004f4:	02022021 	addu	a0,s0,v0
100004f8:	8fa5003c 	lw	a1,60(sp)
100004fc:	90840000 	lbu	a0,0(a0)
10000500:	00a21021 	addu	v0,a1,v0
10000504:	08000125 	j	10000494 <do_gaussian+0x120>
10000508:	a0440000 	sb	a0,0(v0)

1000050c <splitSobel>:
1000050c:	27bd8010 	addiu	sp,sp,-32752
10000510:	340394a0 	li	v1,0x94a0
10000514:	afb37fe8 	sw	s3,32744(sp)
10000518:	afb27fe4 	sw	s2,32740(sp)
1000051c:	afb17fe0 	sw	s1,32736(sp)
10000520:	afb07fdc 	sw	s0,32732(sp)
10000524:	afbf7fec 	sw	ra,32748(sp)
10000528:	00c09825 	move	s3,a2
1000052c:	03a3e823 	subu	sp,sp,v1
10000530:	3c060001 	lui	a2,0x1
10000534:	00809025 	move	s2,a0
10000538:	00a08025 	move	s0,a1
1000053c:	27a40010 	addiu	a0,sp,16
10000540:	00002825 	move	a1,zero
10000544:	24c61464 	addiu	a2,a2,5220
10000548:	0c000a0f 	jal	1000283c <memset>
1000054c:	00e08825 	move	s1,a3
10000550:	1a600002 	blez	s3,1000055c <splitSobel+0x50>
10000554:	00005025 	move	t2,zero
10000558:	00135140 	sll	t2,s3,0x5
1000055c:	3c050001 	lui	a1,0x1
10000560:	24a50f32 	addiu	a1,a1,3890
10000564:	27a20010 	addiu	v0,sp,16
10000568:	02404025 	move	t0,s2
1000056c:	27a60542 	addiu	a2,sp,1346
10000570:	00452821 	addu	a1,v0,a1
10000574:	24090100 	li	t1,256
10000578:	00001025 	move	v0,zero
1000057c:	01021821 	addu	v1,t0,v0
10000580:	90640000 	lbu	a0,0(v1)
10000584:	00c21821 	addu	v1,a2,v0
10000588:	24420001 	addiu	v0,v0,1
1000058c:	1449fffb 	bne	v0,t1,1000057c <splitSobel+0x70>
10000590:	a0640005 	sb	a0,5(v1)
10000594:	24c6010a 	addiu	a2,a2,266
10000598:	14c5fff7 	bne	a2,a1,10000578 <splitSobel+0x6c>
1000059c:	25080100 	addiu	t0,t0,256
100005a0:	00111880 	sll	v1,s1,0x2
100005a4:	001111c0 	sll	v0,s1,0x7
100005a8:	00621021 	addu	v0,v1,v0
100005ac:	00511021 	addu	v0,v0,s1
100005b0:	00021040 	sll	v0,v0,0x1
100005b4:	24482ba4 	addiu	t0,v0,11172
100005b8:	27a30010 	addiu	v1,sp,16
100005bc:	01421021 	addu	v0,t2,v0
100005c0:	01484021 	addu	t0,t2,t0
100005c4:	00623021 	addu	a2,v1,v0
100005c8:	02002825 	move	a1,s0
100005cc:	00684021 	addu	t0,v1,t0
100005d0:	2407002a 	li	a3,42
100005d4:	00001025 	move	v0,zero
100005d8:	00c21821 	addu	v1,a2,v0
100005dc:	90640000 	lbu	a0,0(v1)
100005e0:	00a21821 	addu	v1,a1,v0
100005e4:	24420001 	addiu	v0,v0,1
100005e8:	1447fffb 	bne	v0,a3,100005d8 <splitSobel+0xcc>
100005ec:	a0640000 	sb	a0,0(v1)
100005f0:	24c6010a 	addiu	a2,a2,266
100005f4:	14c8fff7 	bne	a2,t0,100005d4 <splitSobel+0xc8>
100005f8:	24a5002a 	addiu	a1,a1,42
100005fc:	340894a0 	li	t0,0x94a0
10000600:	03a8e821 	addu	sp,sp,t0
10000604:	8fbf7fec 	lw	ra,32748(sp)
10000608:	8fb37fe8 	lw	s3,32744(sp)
1000060c:	8fb27fe4 	lw	s2,32740(sp)
10000610:	8fb17fe0 	lw	s1,32736(sp)
10000614:	8fb07fdc 	lw	s0,32732(sp)
10000618:	03e00008 	jr	ra
1000061c:	27bd7ff0 	addiu	sp,sp,32752

10000620 <splitGauss>:
10000620:	27bd8010 	addiu	sp,sp,-32752
10000624:	34038848 	li	v1,0x8848
10000628:	afb37fe8 	sw	s3,32744(sp)
1000062c:	afb27fe4 	sw	s2,32740(sp)
10000630:	afb17fe0 	sw	s1,32736(sp)
10000634:	afb07fdc 	sw	s0,32732(sp)
10000638:	afbf7fec 	sw	ra,32748(sp)
1000063c:	00c09825 	move	s3,a2
10000640:	03a3e823 	subu	sp,sp,v1
10000644:	3c060001 	lui	a2,0x1
10000648:	00809025 	move	s2,a0
1000064c:	00a08025 	move	s0,a1
10000650:	27a40010 	addiu	a0,sp,16
10000654:	00002825 	move	a1,zero
10000658:	24c60810 	addiu	a2,a2,2064
1000065c:	0c000a0f 	jal	1000283c <memset>
10000660:	00e08825 	move	s1,a3
10000664:	1a600002 	blez	s3,10000670 <splitGauss+0x50>
10000668:	00005025 	move	t2,zero
1000066c:	00135140 	sll	t2,s3,0x5
10000670:	3c050001 	lui	a1,0x1
10000674:	24a50608 	addiu	a1,a1,1544
10000678:	27a20010 	addiu	v0,sp,16
1000067c:	02404025 	move	t0,s2
10000680:	27a60218 	addiu	a2,sp,536
10000684:	00452821 	addu	a1,v0,a1
10000688:	24090100 	li	t1,256
1000068c:	00001025 	move	v0,zero
10000690:	01021821 	addu	v1,t0,v0
10000694:	90640000 	lbu	a0,0(v1)
10000698:	00c21821 	addu	v1,a2,v0
1000069c:	24420001 	addiu	v0,v0,1
100006a0:	1449fffb 	bne	v0,t1,10000690 <splitGauss+0x70>
100006a4:	a0640002 	sb	a0,2(v1)
100006a8:	24c60104 	addiu	a2,a2,260
100006ac:	14c5fff7 	bne	a2,a1,1000068c <splitGauss+0x6c>
100006b0:	25080100 	addiu	t0,t0,256
100006b4:	00113a00 	sll	a3,s1,0x8
100006b8:	00111080 	sll	v0,s1,0x2
100006bc:	00471021 	addu	v0,v0,a3
100006c0:	24482490 	addiu	t0,v0,9360
100006c4:	27a30010 	addiu	v1,sp,16
100006c8:	01421021 	addu	v0,t2,v0
100006cc:	01484021 	addu	t0,t2,t0
100006d0:	00623021 	addu	a2,v1,v0
100006d4:	02002825 	move	a1,s0
100006d8:	00684021 	addu	t0,v1,t0
100006dc:	24070024 	li	a3,36
100006e0:	00001025 	move	v0,zero
100006e4:	00c21821 	addu	v1,a2,v0
100006e8:	90640000 	lbu	a0,0(v1)
100006ec:	00a21821 	addu	v1,a1,v0
100006f0:	24420001 	addiu	v0,v0,1
100006f4:	1447fffb 	bne	v0,a3,100006e4 <splitGauss+0xc4>
100006f8:	a0640000 	sb	a0,0(v1)
100006fc:	24c60104 	addiu	a2,a2,260
10000700:	14c8fff7 	bne	a2,t0,100006e0 <splitGauss+0xc0>
10000704:	24a50024 	addiu	a1,a1,36
10000708:	34088848 	li	t0,0x8848
1000070c:	03a8e821 	addu	sp,sp,t0
10000710:	8fbf7fec 	lw	ra,32748(sp)
10000714:	8fb37fe8 	lw	s3,32744(sp)
10000718:	8fb27fe4 	lw	s2,32740(sp)
1000071c:	8fb17fe0 	lw	s1,32736(sp)
10000720:	8fb07fdc 	lw	s0,32732(sp)
10000724:	03e00008 	jr	ra
10000728:	27bd7ff0 	addiu	sp,sp,32752

1000072c <cutImage>:
1000072c:	10c00014 	beqz	a2,10000780 <cutImage+0x54>
10000730:	24020001 	li	v0,1
10000734:	14c20010 	bne	a2,v0,10000778 <cutImage+0x4c>
10000738:	3c080001 	lui	t0,0x1
1000073c:	25080608 	addiu	t0,t0,1544
10000740:	24a60208 	addiu	a2,a1,520
10000744:	00801825 	move	v1,a0
10000748:	00a84021 	addu	t0,a1,t0
1000074c:	24070100 	li	a3,256
10000750:	00001025 	move	v0,zero
10000754:	00c22021 	addu	a0,a2,v0
10000758:	90850002 	lbu	a1,2(a0)
1000075c:	00622021 	addu	a0,v1,v0
10000760:	24420001 	addiu	v0,v0,1
10000764:	1447fffb 	bne	v0,a3,10000754 <cutImage+0x28>
10000768:	a0850000 	sb	a1,0(a0)
1000076c:	24c60104 	addiu	a2,a2,260
10000770:	14c8fff7 	bne	a2,t0,10000750 <cutImage+0x24>
10000774:	24630100 	addiu	v1,v1,256
10000778:	03e00008 	jr	ra
1000077c:	00000000 	nop
10000780:	3c080001 	lui	t0,0x1
10000784:	25080f32 	addiu	t0,t0,3890
10000788:	24a60532 	addiu	a2,a1,1330
1000078c:	00801825 	move	v1,a0
10000790:	00a84021 	addu	t0,a1,t0
10000794:	24070100 	li	a3,256
10000798:	00001025 	move	v0,zero
1000079c:	00c22021 	addu	a0,a2,v0
100007a0:	90850005 	lbu	a1,5(a0)
100007a4:	00622021 	addu	a0,v1,v0
100007a8:	24420001 	addiu	v0,v0,1
100007ac:	1447fffb 	bne	v0,a3,1000079c <cutImage+0x70>
100007b0:	a0850000 	sb	a1,0(a0)
100007b4:	24c6010a 	addiu	a2,a2,266
100007b8:	14c8fff7 	bne	a2,t0,10000798 <cutImage+0x6c>
100007bc:	24630100 	addiu	v1,v1,256
100007c0:	03e00008 	jr	ra
100007c4:	00000000 	nop

100007c8 <appendBuffer>:
100007c8:	8fa20010 	lw	v0,16(sp)
100007cc:	18c00030 	blez	a2,10000890 <appendBuffer+0xc8>
100007d0:	00000000 	nop
100007d4:	00063140 	sll	a2,a2,0x5
100007d8:	10400016 	beqz	v0,10000834 <appendBuffer+0x6c>
100007dc:	24030001 	li	v1,1
100007e0:	14430012 	bne	v0,v1,1000082c <appendBuffer+0x64>
100007e4:	00071880 	sll	v1,a3,0x2
100007e8:	00073a00 	sll	a3,a3,0x8
100007ec:	00671821 	addu	v1,v1,a3
100007f0:	00c31821 	addu	v1,a2,v1
100007f4:	00831821 	addu	v1,a0,v1
100007f8:	24a60048 	addiu	a2,a1,72
100007fc:	24a804c8 	addiu	t0,a1,1224
10000800:	24070020 	li	a3,32
10000804:	00001025 	move	v0,zero
10000808:	00c22021 	addu	a0,a2,v0
1000080c:	90850002 	lbu	a1,2(a0)
10000810:	00622021 	addu	a0,v1,v0
10000814:	24420001 	addiu	v0,v0,1
10000818:	1447fffb 	bne	v0,a3,10000808 <appendBuffer+0x40>
1000081c:	a0850000 	sb	a1,0(a0)
10000820:	24c60024 	addiu	a2,a2,36
10000824:	14c8fff7 	bne	a2,t0,10000804 <appendBuffer+0x3c>
10000828:	24630104 	addiu	v1,v1,260
1000082c:	03e00008 	jr	ra
10000830:	00000000 	nop
10000834:	24e70004 	addiu	a3,a3,4
10000838:	00071080 	sll	v0,a3,0x2
1000083c:	000719c0 	sll	v1,a3,0x7
10000840:	00431821 	addu	v1,v0,v1
10000844:	00671821 	addu	v1,v1,a3
10000848:	00031840 	sll	v1,v1,0x1
1000084c:	00c31821 	addu	v1,a2,v1
10000850:	00831821 	addu	v1,a0,v1
10000854:	24a600a8 	addiu	a2,a1,168
10000858:	24a805e8 	addiu	t0,a1,1512
1000085c:	24070020 	li	a3,32
10000860:	00001025 	move	v0,zero
10000864:	00c22021 	addu	a0,a2,v0
10000868:	90850004 	lbu	a1,4(a0)
1000086c:	00622021 	addu	a0,v1,v0
10000870:	24420001 	addiu	v0,v0,1
10000874:	1447fffb 	bne	v0,a3,10000864 <appendBuffer+0x9c>
10000878:	a0850004 	sb	a1,4(a0)
1000087c:	24c6002a 	addiu	a2,a2,42
10000880:	14c8fff7 	bne	a2,t0,10000860 <appendBuffer+0x98>
10000884:	2463010a 	addiu	v1,v1,266
10000888:	03e00008 	jr	ra
1000088c:	00000000 	nop
10000890:	080001f6 	j	100007d8 <appendBuffer+0x10>
10000894:	00003025 	move	a2,zero

10000898 <showImg>:
10000898:	27bdffc8 	addiu	sp,sp,-56
1000089c:	afb30020 	sw	s3,32(sp)
100008a0:	00809825 	move	s3,a0
100008a4:	3c041000 	lui	a0,0x1000
100008a8:	24050100 	li	a1,256
100008ac:	248449e0 	addiu	a0,a0,18912
100008b0:	24060100 	li	a2,256
100008b4:	afbf0034 	sw	ra,52(sp)
100008b8:	afb70030 	sw	s7,48(sp)
100008bc:	afb6002c 	sw	s6,44(sp)
100008c0:	afb50028 	sw	s5,40(sp)
100008c4:	afb40024 	sw	s4,36(sp)
100008c8:	afb2001c 	sw	s2,28(sp)
100008cc:	afb10018 	sw	s1,24(sp)
100008d0:	0c000a19 	jal	10002864 <printf>
100008d4:	afb00014 	sw	s0,20(sp)
100008d8:	3c041000 	lui	a0,0x1000
100008dc:	24844a04 	addiu	a0,a0,18948
100008e0:	3c151000 	lui	s5,0x1000
100008e4:	3c161000 	lui	s6,0x1000
100008e8:	0c000a19 	jal	10002864 <printf>
100008ec:	3c141000 	lui	s4,0x1000
100008f0:	0000b825 	move	s7,zero
100008f4:	00009025 	move	s2,zero
100008f8:	26b54a1c 	addiu	s5,s5,18972
100008fc:	26d64afc 	addiu	s6,s6,19196
10000900:	26944a24 	addiu	s4,s4,18980
10000904:	26f10001 	addiu	s1,s7,1
10000908:	08000247 	j	1000091c <showImg+0x84>
1000090c:	00008025 	move	s0,zero
10000910:	26100001 	addiu	s0,s0,1
10000914:	12020013 	beq	s0,v0,10000964 <showImg+0xcc>
10000918:	26310001 	addiu	s1,s1,1
1000091c:	02701021 	addu	v0,s3,s0
10000920:	90450000 	lbu	a1,0(v0)
10000924:	0c000a19 	jal	10002864 <printf>
10000928:	02a02025 	move	a0,s5
1000092c:	240200ff 	li	v0,255
10000930:	1242001c 	beq	s2,v0,100009a4 <showImg+0x10c>
10000934:	02802025 	move	a0,s4
10000938:	0c000a19 	jal	10002864 <printf>
1000093c:	0220b825 	move	s7,s1
10000940:	3222000f 	andi	v0,s1,0xf
10000944:	1440fff2 	bnez	v0,10000910 <showImg+0x78>
10000948:	24020100 	li	v0,256
1000094c:	0c000a19 	jal	10002864 <printf>
10000950:	02c02025 	move	a0,s6
10000954:	26100001 	addiu	s0,s0,1
10000958:	24020100 	li	v0,256
1000095c:	1602ffef 	bne	s0,v0,1000091c <showImg+0x84>
10000960:	26310001 	addiu	s1,s1,1
10000964:	26520001 	addiu	s2,s2,1
10000968:	1650ffe6 	bne	s2,s0,10000904 <showImg+0x6c>
1000096c:	26730100 	addiu	s3,s3,256
10000970:	8fbf0034 	lw	ra,52(sp)
10000974:	8fb70030 	lw	s7,48(sp)
10000978:	8fb6002c 	lw	s6,44(sp)
1000097c:	8fb50028 	lw	s5,40(sp)
10000980:	8fb40024 	lw	s4,36(sp)
10000984:	8fb30020 	lw	s3,32(sp)
10000988:	8fb2001c 	lw	s2,28(sp)
1000098c:	8fb10018 	lw	s1,24(sp)
10000990:	8fb00014 	lw	s0,20(sp)
10000994:	3c041000 	lui	a0,0x1000
10000998:	24844a28 	addiu	a0,a0,18984
1000099c:	08000a19 	j	10002864 <printf>
100009a0:	27bd0038 	addiu	sp,sp,56
100009a4:	1612ffe4 	bne	s0,s2,10000938 <showImg+0xa0>
100009a8:	3222000f 	andi	v0,s1,0xf
100009ac:	1440fff0 	bnez	v0,10000970 <showImg+0xd8>
100009b0:	0220b825 	move	s7,s1
100009b4:	08000253 	j	1000094c <showImg+0xb4>
100009b8:	00000000 	nop

100009bc <master_sobel>:
100009bc:	3c021000 	lui	v0,0x1000
100009c0:	03e00008 	jr	ra
100009c4:	244209bc 	addiu	v0,v0,2492

100009c8 <master_appendBuffer>:
100009c8:	27bdffd8 	addiu	sp,sp,-40
100009cc:	afb10020 	sw	s1,32(sp)
100009d0:	3c111009 	lui	s1,0x1009
100009d4:	afb0001c 	sw	s0,28(sp)
100009d8:	26300a48 	addiu	s0,s1,2632
100009dc:	92070004 	lbu	a3,4(s0)
100009e0:	92050005 	lbu	a1,5(s0)
100009e4:	92260a48 	lbu	a2,2632(s1)
100009e8:	92240a49 	lbu	a0,2633(s1)
100009ec:	92030006 	lbu	v1,6(s0)
100009f0:	92220a4a 	lbu	v0,2634(s1)
100009f4:	00052c00 	sll	a1,a1,0x10
100009f8:	00063600 	sll	a2,a2,0x18
100009fc:	00073e00 	sll	a3,a3,0x18
10000a00:	00042400 	sll	a0,a0,0x10
10000a04:	00a73825 	or	a3,a1,a3
10000a08:	00862025 	or	a0,a0,a2
10000a0c:	92050007 	lbu	a1,7(s0)
10000a10:	92260a4b 	lbu	a2,2635(s1)
10000a14:	00031a00 	sll	v1,v1,0x8
10000a18:	00021200 	sll	v0,v0,0x8
10000a1c:	00671825 	or	v1,v1,a3
10000a20:	00441025 	or	v0,v0,a0
10000a24:	3c041000 	lui	a0,0x1000
10000a28:	00a32825 	or	a1,a1,v1
10000a2c:	24844a2c 	addiu	a0,a0,18988
10000a30:	afbf0024 	sw	ra,36(sp)
10000a34:	0c000a19 	jal	10002864 <printf>
10000a38:	00c23025 	or	a2,a2,v0
10000a3c:	92080004 	lbu	t0,4(s0)
10000a40:	92060005 	lbu	a2,5(s0)
10000a44:	92270a48 	lbu	a3,2632(s1)
10000a48:	92250a49 	lbu	a1,2633(s1)
10000a4c:	92030006 	lbu	v1,6(s0)
10000a50:	92220a4a 	lbu	v0,2634(s1)
10000a54:	00063400 	sll	a2,a2,0x10
10000a58:	00073e00 	sll	a3,a3,0x18
10000a5c:	00084600 	sll	t0,t0,0x18
10000a60:	00052c00 	sll	a1,a1,0x10
10000a64:	3c091009 	lui	t1,0x1009
10000a68:	00c84025 	or	t0,a2,t0
10000a6c:	00a72825 	or	a1,a1,a3
10000a70:	92060007 	lbu	a2,7(s0)
10000a74:	92270a4b 	lbu	a3,2635(s1)
10000a78:	8d291180 	lw	t1,4480(t1)
10000a7c:	3c041009 	lui	a0,0x1009
10000a80:	00031a00 	sll	v1,v1,0x8
10000a84:	00021200 	sll	v0,v0,0x8
10000a88:	00451025 	or	v0,v0,a1
10000a8c:	00681825 	or	v1,v1,t0
10000a90:	8c841188 	lw	a0,4488(a0)
10000a94:	3c051009 	lui	a1,0x1009
10000a98:	00c33025 	or	a2,a2,v1
10000a9c:	afa90010 	sw	t1,16(sp)
10000aa0:	24a50a60 	addiu	a1,a1,2656
10000aa4:	0c0001f2 	jal	100007c8 <appendBuffer>
10000aa8:	00e23825 	or	a3,a3,v0
10000aac:	02002025 	move	a0,s0
10000ab0:	00002825 	move	a1,zero
10000ab4:	0c000a0f 	jal	1000283c <memset>
10000ab8:	240606fc 	li	a2,1788
10000abc:	8fbf0024 	lw	ra,36(sp)
10000ac0:	3c021000 	lui	v0,0x1000
10000ac4:	8fb10020 	lw	s1,32(sp)
10000ac8:	8fb0001c 	lw	s0,28(sp)
10000acc:	24420ad8 	addiu	v0,v0,2776
10000ad0:	03e00008 	jr	ra
10000ad4:	27bd0028 	addiu	sp,sp,40

10000ad8 <master_prepareBuffer>:
10000ad8:	27bdffd8 	addiu	sp,sp,-40
10000adc:	afb10014 	sw	s1,20(sp)
10000ae0:	3c111009 	lui	s1,0x1009
10000ae4:	26240a48 	addiu	a0,s1,2632
10000ae8:	00002825 	move	a1,zero
10000aec:	240606fc 	li	a2,1788
10000af0:	afb40020 	sw	s4,32(sp)
10000af4:	afbf0024 	sw	ra,36(sp)
10000af8:	afb3001c 	sw	s3,28(sp)
10000afc:	afb20018 	sw	s2,24(sp)
10000b00:	0c000a0f 	jal	1000283c <memset>
10000b04:	afb00010 	sw	s0,16(sp)
10000b08:	3c021009 	lui	v0,0x1009
10000b0c:	8c541180 	lw	s4,4480(v0)
10000b10:	00000000 	nop
10000b14:	12800054 	beqz	s4,10000c68 <master_prepareBuffer+0x190>
10000b18:	24020001 	li	v0,1
10000b1c:	12820040 	beq	s4,v0,10000c20 <master_prepareBuffer+0x148>
10000b20:	3c041000 	lui	a0,0x1000
10000b24:	26300a48 	addiu	s0,s1,2632
10000b28:	3c121001 	lui	s2,0x1001
10000b2c:	3c131001 	lui	s3,0x1001
10000b30:	3c031009 	lui	v1,0x1009
10000b34:	8c631178 	lw	v1,4472(v1)
10000b38:	8e4255b8 	lw	v0,21944(s2)
10000b3c:	3c041001 	lui	a0,0x1001
10000b40:	8c8755b4 	lw	a3,21940(a0)
10000b44:	8e6555bc 	lw	a1,21948(s3)
10000b48:	00032080 	sll	a0,v1,0x2
10000b4c:	3c031009 	lui	v1,0x1009
10000b50:	24480001 	addiu	t0,v0,1
10000b54:	24630a38 	addiu	v1,v1,2616
10000b58:	00831821 	addu	v1,a0,v1
10000b5c:	0005a602 	srl	s4,a1,0x18
10000b60:	00057c02 	srl	t7,a1,0x10
10000b64:	00057202 	srl	t6,a1,0x8
10000b68:	00026e02 	srl	t5,v0,0x18
10000b6c:	00026402 	srl	t4,v0,0x10
10000b70:	00025a02 	srl	t3,v0,0x8
10000b74:	00075602 	srl	t2,a3,0x18
10000b78:	00074c02 	srl	t1,a3,0x10
10000b7c:	00073202 	srl	a2,a3,0x8
10000b80:	24180002 	li	t8,2
10000b84:	31040007 	andi	a0,t0,0x7
10000b88:	a2000014 	sb	zero,20(s0)
10000b8c:	a2000015 	sb	zero,21(s0)
10000b90:	a2000016 	sb	zero,22(s0)
10000b94:	a2180017 	sb	t8,23(s0)
10000b98:	a2340a48 	sb	s4,2632(s1)
10000b9c:	a22f0a49 	sb	t7,2633(s1)
10000ba0:	a22e0a4a 	sb	t6,2634(s1)
10000ba4:	a2250a4b 	sb	a1,2635(s1)
10000ba8:	a20d0004 	sb	t5,4(s0)
10000bac:	a20c0005 	sb	t4,5(s0)
10000bb0:	a20b0006 	sb	t3,6(s0)
10000bb4:	a2020007 	sb	v0,7(s0)
10000bb8:	a20a0008 	sb	t2,8(s0)
10000bbc:	a2090009 	sb	t1,9(s0)
10000bc0:	a206000a 	sb	a2,10(s0)
10000bc4:	a207000b 	sb	a3,11(s0)
10000bc8:	14800006 	bnez	a0,10000be4 <master_prepareBuffer+0x10c>
10000bcc:	ac670000 	sw	a3,0(v1)
10000bd0:	18400005 	blez	v0,10000be8 <master_prepareBuffer+0x110>
10000bd4:	3c041000 	lui	a0,0x1000
10000bd8:	24a50020 	addiu	a1,a1,32
10000bdc:	ae6555bc 	sw	a1,21948(s3)
10000be0:	00004025 	move	t0,zero
10000be4:	3c041000 	lui	a0,0x1000
10000be8:	24844a8c 	addiu	a0,a0,19084
10000bec:	01003025 	move	a2,t0
10000bf0:	0c000a19 	jal	10002864 <printf>
10000bf4:	ae4855b8 	sw	t0,21944(s2)
10000bf8:	8fbf0024 	lw	ra,36(sp)
10000bfc:	3c021000 	lui	v0,0x1000
10000c00:	8fb40020 	lw	s4,32(sp)
10000c04:	8fb3001c 	lw	s3,28(sp)
10000c08:	8fb20018 	lw	s2,24(sp)
10000c0c:	8fb10014 	lw	s1,20(sp)
10000c10:	8fb00010 	lw	s0,16(sp)
10000c14:	244211b4 	addiu	v0,v0,4532
10000c18:	03e00008 	jr	ra
10000c1c:	27bd0028 	addiu	sp,sp,40
10000c20:	24844a4c 	addiu	a0,a0,19020
10000c24:	3c121001 	lui	s2,0x1001
10000c28:	0c000a19 	jal	10002864 <printf>
10000c2c:	3c131001 	lui	s3,0x1001
10000c30:	8e4655b8 	lw	a2,21944(s2)
10000c34:	8e6755bc 	lw	a3,21948(s3)
10000c38:	3c041000 	lui	a0,0x1000
10000c3c:	3c051009 	lui	a1,0x1009
10000c40:	26300a48 	addiu	s0,s1,2632
10000c44:	248455a4 	addiu	a0,a0,21924
10000c48:	24a50a60 	addiu	a1,a1,2656
10000c4c:	a2000010 	sb	zero,16(s0)
10000c50:	a2000011 	sb	zero,17(s0)
10000c54:	a2000012 	sb	zero,18(s0)
10000c58:	0c000188 	jal	10000620 <splitGauss>
10000c5c:	a2140013 	sb	s4,19(s0)
10000c60:	080002cd 	j	10000b34 <master_prepareBuffer+0x5c>
10000c64:	3c031009 	lui	v1,0x1009
10000c68:	3c041000 	lui	a0,0x1000
10000c6c:	24844a6c 	addiu	a0,a0,19052
10000c70:	3c121001 	lui	s2,0x1001
10000c74:	0c000a19 	jal	10002864 <printf>
10000c78:	3c131001 	lui	s3,0x1001
10000c7c:	8e4655b8 	lw	a2,21944(s2)
10000c80:	8e6755bc 	lw	a3,21948(s3)
10000c84:	3c041000 	lui	a0,0x1000
10000c88:	3c051009 	lui	a1,0x1009
10000c8c:	26300a48 	addiu	s0,s1,2632
10000c90:	248455a4 	addiu	a0,a0,21924
10000c94:	24a50a60 	addiu	a1,a1,2656
10000c98:	a2000010 	sb	zero,16(s0)
10000c9c:	a2000011 	sb	zero,17(s0)
10000ca0:	a2000012 	sb	zero,18(s0)
10000ca4:	0c000143 	jal	1000050c <splitSobel>
10000ca8:	a2000013 	sb	zero,19(s0)
10000cac:	080002cd 	j	10000b34 <master_prepareBuffer+0x5c>
10000cb0:	3c031009 	lui	v1,0x1009

10000cb4 <slave_filter>:
10000cb4:	3c091009 	lui	t1,0x1009
10000cb8:	27bdffe0 	addiu	sp,sp,-32
10000cbc:	afb00014 	sw	s0,20(sp)
10000cc0:	25300a48 	addiu	s0,t1,2632
10000cc4:	91250a48 	lbu	a1,2632(t1)
10000cc8:	92030004 	lbu	v1,4(s0)
10000ccc:	92070005 	lbu	a3,5(s0)
10000cd0:	91280a49 	lbu	t0,2633(t1)
10000cd4:	91240a4a 	lbu	a0,2634(t1)
10000cd8:	92020006 	lbu	v0,6(s0)
10000cdc:	00055600 	sll	t2,a1,0x18
10000ce0:	00033600 	sll	a2,v1,0x18
10000ce4:	00082c00 	sll	a1,t0,0x10
10000ce8:	00071c00 	sll	v1,a3,0x10
10000cec:	00aa2825 	or	a1,a1,t2
10000cf0:	91270a4b 	lbu	a3,2635(t1)
10000cf4:	00042200 	sll	a0,a0,0x8
10000cf8:	00661825 	or	v1,v1,a2
10000cfc:	00021200 	sll	v0,v0,0x8
10000d00:	92060007 	lbu	a2,7(s0)
10000d04:	00431825 	or	v1,v0,v1
10000d08:	00852825 	or	a1,a0,a1
10000d0c:	3c041000 	lui	a0,0x1000
10000d10:	00c33025 	or	a2,a2,v1
10000d14:	00e52825 	or	a1,a3,a1
10000d18:	24844a98 	addiu	a0,a0,19096
10000d1c:	afbf001c 	sw	ra,28(sp)
10000d20:	0c000a19 	jal	10002864 <printf>
10000d24:	afb10018 	sw	s1,24(sp)
10000d28:	92030010 	lbu	v1,16(s0)
10000d2c:	92070011 	lbu	a3,17(s0)
10000d30:	92060012 	lbu	a2,18(s0)
10000d34:	00031600 	sll	v0,v1,0x18
10000d38:	00071c00 	sll	v1,a3,0x10
10000d3c:	00621825 	or	v1,v1,v0
10000d40:	00063200 	sll	a2,a2,0x8
10000d44:	92020013 	lbu	v0,19(s0)
10000d48:	00c31825 	or	v1,a2,v1
10000d4c:	00431825 	or	v1,v0,v1
10000d50:	1060001f 	beqz	v1,10000dd0 <slave_filter+0x11c>
10000d54:	24020001 	li	v0,1
10000d58:	1062000f 	beq	v1,v0,10000d98 <slave_filter+0xe4>
10000d5c:	00000000 	nop
10000d60:	3c101009 	lui	s0,0x1009
10000d64:	02202825 	move	a1,s1
10000d68:	26040a60 	addiu	a0,s0,2656
10000d6c:	0c000a04 	jal	10002810 <memcpy>
10000d70:	24060510 	li	a2,1296
10000d74:	0c000a2b 	jal	100028ac <free>
10000d78:	02202025 	move	a0,s1
10000d7c:	8fbf001c 	lw	ra,28(sp)
10000d80:	3c021000 	lui	v0,0x1000
10000d84:	8fb10018 	lw	s1,24(sp)
10000d88:	8fb00014 	lw	s0,20(sp)
10000d8c:	244212dc 	addiu	v0,v0,4828
10000d90:	03e00008 	jr	ra
10000d94:	27bd0020 	addiu	sp,sp,32
10000d98:	3c041000 	lui	a0,0x1000
10000d9c:	0c000a19 	jal	10002864 <printf>
10000da0:	24844ab4 	addiu	a0,a0,19124
10000da4:	0c000a29 	jal	100028a4 <malloc>
10000da8:	24040510 	li	a0,1296
10000dac:	3c101009 	lui	s0,0x1009
10000db0:	26040a60 	addiu	a0,s0,2656
10000db4:	00402825 	move	a1,v0
10000db8:	24060024 	li	a2,36
10000dbc:	24070024 	li	a3,36
10000dc0:	0c0000dd 	jal	10000374 <do_gaussian>
10000dc4:	00408825 	move	s1,v0
10000dc8:	0800035a 	j	10000d68 <slave_filter+0xb4>
10000dcc:	02202825 	move	a1,s1
10000dd0:	3c041000 	lui	a0,0x1000
10000dd4:	0c000a19 	jal	10002864 <printf>
10000dd8:	24844ac8 	addiu	a0,a0,19144
10000ddc:	08000359 	j	10000d64 <slave_filter+0xb0>
10000de0:	3c101009 	lui	s0,0x1009

10000de4 <master_gaussian>:
10000de4:	27bdffe0 	addiu	sp,sp,-32
10000de8:	3c041000 	lui	a0,0x1000
10000dec:	24844ad8 	addiu	a0,a0,19160
10000df0:	afb00010 	sw	s0,16(sp)
10000df4:	3c101001 	lui	s0,0x1001
10000df8:	afbf001c 	sw	ra,28(sp)
10000dfc:	afb20018 	sw	s2,24(sp)
10000e00:	0c000a19 	jal	10002864 <printf>
10000e04:	afb10014 	sw	s1,20(sp)
10000e08:	8e0255b4 	lw	v0,21940(s0)
10000e0c:	24040001 	li	a0,1
10000e10:	3c031000 	lui	v1,0x1000
10000e14:	a06455a0 	sb	a0,21920(v1)
10000e18:	2c420040 	sltiu	v0,v0,64
10000e1c:	24040001 	li	a0,1
10000e20:	3c031009 	lui	v1,0x1009
10000e24:	10400009 	beqz	v0,10000e4c <master_gaussian+0x68>
10000e28:	ac641180 	sw	a0,4480(v1)
10000e2c:	8fbf001c 	lw	ra,28(sp)
10000e30:	3c021000 	lui	v0,0x1000
10000e34:	8fb20018 	lw	s2,24(sp)
10000e38:	8fb10014 	lw	s1,20(sp)
10000e3c:	8fb00010 	lw	s0,16(sp)
10000e40:	24421450 	addiu	v0,v0,5200
10000e44:	03e00008 	jr	ra
10000e48:	27bd0020 	addiu	sp,sp,32
10000e4c:	3c041000 	lui	a0,0x1000
10000e50:	3c121009 	lui	s2,0x1009
10000e54:	3c111009 	lui	s1,0x1009
10000e58:	0c000a19 	jal	10002864 <printf>
10000e5c:	24844aec 	addiu	a0,a0,19180
10000e60:	8e44117c 	lw	a0,4476(s2)
10000e64:	8e251188 	lw	a1,4488(s1)
10000e68:	0c0001cb 	jal	1000072c <cutImage>
10000e6c:	24060001 	li	a2,1
10000e70:	0c00074c 	jal	10001d30 <_readcounter>
10000e74:	00000000 	nop
10000e78:	3c061009 	lui	a2,0x1009
10000e7c:	8cc31184 	lw	v1,4484(a2)
10000e80:	3c041000 	lui	a0,0x1000
10000e84:	00431023 	subu	v0,v0,v1
10000e88:	00402825 	move	a1,v0
10000e8c:	24844b00 	addiu	a0,a0,19200
10000e90:	0c000a19 	jal	10002864 <printf>
10000e94:	acc21184 	sw	v0,4484(a2)
10000e98:	8e44117c 	lw	a0,4476(s2)
10000e9c:	0c000226 	jal	10000898 <showImg>
10000ea0:	00000000 	nop
10000ea4:	8e241188 	lw	a0,4488(s1)
10000ea8:	00002825 	move	a1,zero
10000eac:	0c000a0f 	jal	1000283c <memset>
10000eb0:	24060004 	li	a2,4
10000eb4:	8fbf001c 	lw	ra,28(sp)
10000eb8:	3c021000 	lui	v0,0x1000
10000ebc:	8fb20018 	lw	s2,24(sp)
10000ec0:	8fb10014 	lw	s1,20(sp)
10000ec4:	ae0055b4 	sw	zero,21940(s0)
10000ec8:	244209bc 	addiu	v0,v0,2492
10000ecc:	8fb00010 	lw	s0,16(sp)
10000ed0:	03e00008 	jr	ra
10000ed4:	27bd0020 	addiu	sp,sp,32

10000ed8 <slave_fsm>:
10000ed8:	27bdffe8 	addiu	sp,sp,-24
10000edc:	3c021000 	lui	v0,0x1000
10000ee0:	2442139c 	addiu	v0,v0,5020
10000ee4:	afbf0014 	sw	ra,20(sp)
10000ee8:	0040f809 	jalr	v0
10000eec:	00000000 	nop
10000ef0:	0040f809 	jalr	v0
10000ef4:	00000000 	nop
10000ef8:	080003ba 	j	10000ee8 <slave_fsm+0x10>
10000efc:	00000000 	nop

10000f00 <core3>:
10000f00:	27bdffe8 	addiu	sp,sp,-24
10000f04:	afbf0014 	sw	ra,20(sp)
10000f08:	0c001183 	jal	1000460c <hf_selfid>
10000f0c:	00000000 	nop
10000f10:	00402025 	move	a0,v0
10000f14:	240503e8 	li	a1,1000
10000f18:	0c000caf 	jal	100032bc <hf_comm_create>
10000f1c:	00003025 	move	a2,zero
10000f20:	14400003 	bnez	v0,10000f30 <core3+0x30>
10000f24:	00000000 	nop
10000f28:	0c0003b6 	jal	10000ed8 <slave_fsm>
10000f2c:	00000000 	nop
10000f30:	0c000ebe 	jal	10003af8 <panic>
10000f34:	240400ff 	li	a0,255
10000f38:	0c0003b6 	jal	10000ed8 <slave_fsm>
10000f3c:	00000000 	nop

10000f40 <core2>:
10000f40:	27bdffe8 	addiu	sp,sp,-24
10000f44:	afbf0014 	sw	ra,20(sp)
10000f48:	0c001183 	jal	1000460c <hf_selfid>
10000f4c:	00000000 	nop
10000f50:	00402025 	move	a0,v0
10000f54:	240503e8 	li	a1,1000
10000f58:	0c000caf 	jal	100032bc <hf_comm_create>
10000f5c:	00003025 	move	a2,zero
10000f60:	14400003 	bnez	v0,10000f70 <core2+0x30>
10000f64:	00000000 	nop
10000f68:	0c0003b6 	jal	10000ed8 <slave_fsm>
10000f6c:	00000000 	nop
10000f70:	0c000ebe 	jal	10003af8 <panic>
10000f74:	240400ff 	li	a0,255
10000f78:	0c0003b6 	jal	10000ed8 <slave_fsm>
10000f7c:	00000000 	nop

10000f80 <core1>:
10000f80:	27bdffe8 	addiu	sp,sp,-24
10000f84:	afbf0014 	sw	ra,20(sp)
10000f88:	0c001183 	jal	1000460c <hf_selfid>
10000f8c:	00000000 	nop
10000f90:	00402025 	move	a0,v0
10000f94:	240503e8 	li	a1,1000
10000f98:	0c000caf 	jal	100032bc <hf_comm_create>
10000f9c:	00003025 	move	a2,zero
10000fa0:	14400003 	bnez	v0,10000fb0 <core1+0x30>
10000fa4:	00000000 	nop
10000fa8:	0c0003b6 	jal	10000ed8 <slave_fsm>
10000fac:	00000000 	nop
10000fb0:	0c000ebe 	jal	10003af8 <panic>
10000fb4:	240400ff 	li	a0,255
10000fb8:	0c0003b6 	jal	10000ed8 <slave_fsm>
10000fbc:	00000000 	nop

10000fc0 <core0>:
10000fc0:	27bdffe8 	addiu	sp,sp,-24
10000fc4:	afbf0014 	sw	ra,20(sp)
10000fc8:	0c001183 	jal	1000460c <hf_selfid>
10000fcc:	00000000 	nop
10000fd0:	00402025 	move	a0,v0
10000fd4:	240503e8 	li	a1,1000
10000fd8:	0c000caf 	jal	100032bc <hf_comm_create>
10000fdc:	00003025 	move	a2,zero
10000fe0:	14400003 	bnez	v0,10000ff0 <core0+0x30>
10000fe4:	00000000 	nop
10000fe8:	0c0003b6 	jal	10000ed8 <slave_fsm>
10000fec:	00000000 	nop
10000ff0:	0c000ebe 	jal	10003af8 <panic>
10000ff4:	240400ff 	li	a0,255
10000ff8:	0c0003b6 	jal	10000ed8 <slave_fsm>
10000ffc:	00000000 	nop

10001000 <master_fsm>:
10001000:	27bdffe8 	addiu	sp,sp,-24
10001004:	3c021000 	lui	v0,0x1000
10001008:	24420de4 	addiu	v0,v0,3556
1000100c:	afbf0014 	sw	ra,20(sp)
10001010:	0040f809 	jalr	v0
10001014:	00000000 	nop
10001018:	0040f809 	jalr	v0
1000101c:	00000000 	nop
10001020:	08000404 	j	10001010 <master_fsm+0x10>
10001024:	00000000 	nop

10001028 <core4>:
10001028:	27bdffe8 	addiu	sp,sp,-24
1000102c:	afbf0014 	sw	ra,20(sp)
10001030:	0c001183 	jal	1000460c <hf_selfid>
10001034:	afb00010 	sw	s0,16(sp)
10001038:	00402025 	move	a0,v0
1000103c:	24051388 	li	a1,5000
10001040:	0c000caf 	jal	100032bc <hf_comm_create>
10001044:	00003025 	move	a2,zero
10001048:	1440000d 	bnez	v0,10001080 <core4+0x58>
1000104c:	3c100001 	lui	s0,0x1
10001050:	0c000a29 	jal	100028a4 <malloc>
10001054:	26041464 	addiu	a0,s0,5220
10001058:	3c031009 	lui	v1,0x1009
1000105c:	26040810 	addiu	a0,s0,2064
10001060:	0c000a29 	jal	100028a4 <malloc>
10001064:	ac621188 	sw	v0,4488(v1)
10001068:	3c031009 	lui	v1,0x1009
1000106c:	0c00074c 	jal	10001d30 <_readcounter>
10001070:	ac62117c 	sw	v0,4476(v1)
10001074:	3c031009 	lui	v1,0x1009
10001078:	0c000400 	jal	10001000 <master_fsm>
1000107c:	ac621184 	sw	v0,4484(v1)
10001080:	0c000ebe 	jal	10003af8 <panic>
10001084:	240400ff 	li	a0,255
10001088:	08000414 	j	10001050 <core4+0x28>
1000108c:	3c100001 	lui	s0,0x1

10001090 <sender>:
10001090:	27bdffd0 	addiu	sp,sp,-48
10001094:	afb0001c 	sw	s0,28(sp)
10001098:	00068400 	sll	s0,a2,0x10
1000109c:	afb20024 	sw	s2,36(sp)
100010a0:	afb10020 	sw	s1,32(sp)
100010a4:	00108403 	sra	s0,s0,0x10
100010a8:	30f1ffff 	andi	s1,a3,0xffff
100010ac:	00809025 	move	s2,a0
100010b0:	3c041000 	lui	a0,0x1000
100010b4:	02003825 	move	a3,s0
100010b8:	afb30028 	sw	s3,40(sp)
100010bc:	02203025 	move	a2,s1
100010c0:	00a09825 	move	s3,a1
100010c4:	24844b10 	addiu	a0,a0,19216
100010c8:	afbf002c 	sw	ra,44(sp)
100010cc:	0c000a19 	jal	10002864 <printf>
100010d0:	3210ffff 	andi	s0,s0,0xffff
100010d4:	02202825 	move	a1,s1
100010d8:	afb00010 	sw	s0,16(sp)
100010dc:	3264ffff 	andi	a0,s3,0xffff
100010e0:	02403025 	move	a2,s2
100010e4:	0c000e14 	jal	10003850 <hf_send>
100010e8:	240706fc 	li	a3,1788
100010ec:	00022c00 	sll	a1,v0,0x10
100010f0:	00052c03 	sra	a1,a1,0x10
100010f4:	14a00008 	bnez	a1,10001118 <sender+0x88>
100010f8:	3c041000 	lui	a0,0x1000
100010fc:	8fbf002c 	lw	ra,44(sp)
10001100:	8fb30028 	lw	s3,40(sp)
10001104:	8fb20024 	lw	s2,36(sp)
10001108:	8fb10020 	lw	s1,32(sp)
1000110c:	8fb0001c 	lw	s0,28(sp)
10001110:	03e00008 	jr	ra
10001114:	27bd0030 	addiu	sp,sp,48
10001118:	8fbf002c 	lw	ra,44(sp)
1000111c:	8fb30028 	lw	s3,40(sp)
10001120:	8fb20024 	lw	s2,36(sp)
10001124:	8fb10020 	lw	s1,32(sp)
10001128:	8fb0001c 	lw	s0,28(sp)
1000112c:	24844b44 	addiu	a0,a0,19268
10001130:	08000a19 	j	10002864 <printf>
10001134:	27bd0030 	addiu	sp,sp,48

10001138 <master_sendAck>:
10001138:	3c041000 	lui	a0,0x1000
1000113c:	27bdf8e0 	addiu	sp,sp,-1824
10001140:	24844b5c 	addiu	a0,a0,19292
10001144:	afbf071c 	sw	ra,1820(sp)
10001148:	afb10718 	sw	s1,1816(sp)
1000114c:	0c000a19 	jal	10002864 <printf>
10001150:	afb00714 	sw	s0,1812(sp)
10001154:	27a40028 	addiu	a0,sp,40
10001158:	00002825 	move	a1,zero
1000115c:	240606e4 	li	a2,1764
10001160:	afa00024 	sw	zero,36(sp)
10001164:	0c000a0f 	jal	1000283c <memset>
10001168:	24100003 	li	s0,3
1000116c:	3c111009 	lui	s1,0x1009
10001170:	8e251178 	lw	a1,4472(s1)
10001174:	27a40010 	addiu	a0,sp,16
10001178:	24060004 	li	a2,4
1000117c:	240703e8 	li	a3,1000
10001180:	0c000424 	jal	10001090 <sender>
10001184:	2610ffff 	addiu	s0,s0,-1
10001188:	321000ff 	andi	s0,s0,0xff
1000118c:	0c00067a 	jal	100019e8 <delay_ms>
10001190:	24040032 	li	a0,50
10001194:	1600fff6 	bnez	s0,10001170 <master_sendAck+0x38>
10001198:	3c021000 	lui	v0,0x1000
1000119c:	8fbf071c 	lw	ra,1820(sp)
100011a0:	8fb10718 	lw	s1,1816(sp)
100011a4:	8fb00714 	lw	s0,1812(sp)
100011a8:	244209c8 	addiu	v0,v0,2504
100011ac:	03e00008 	jr	ra
100011b0:	27bd0720 	addiu	sp,sp,1824

100011b4 <master_sendBuffer>:
100011b4:	27bdffe0 	addiu	sp,sp,-32
100011b8:	3c041000 	lui	a0,0x1000
100011bc:	24844b6c 	addiu	a0,a0,19308
100011c0:	afb10014 	sw	s1,20(sp)
100011c4:	3c111009 	lui	s1,0x1009
100011c8:	afb20018 	sw	s2,24(sp)
100011cc:	afb00010 	sw	s0,16(sp)
100011d0:	afbf001c 	sw	ra,28(sp)
100011d4:	0c000a19 	jal	10002864 <printf>
100011d8:	24100003 	li	s0,3
100011dc:	3c121009 	lui	s2,0x1009
100011e0:	26310a48 	addiu	s1,s1,2632
100011e4:	8e451178 	lw	a1,4472(s2)
100011e8:	02202025 	move	a0,s1
100011ec:	24060004 	li	a2,4
100011f0:	240703e8 	li	a3,1000
100011f4:	0c000424 	jal	10001090 <sender>
100011f8:	2610ffff 	addiu	s0,s0,-1
100011fc:	321000ff 	andi	s0,s0,0xff
10001200:	0c00067a 	jal	100019e8 <delay_ms>
10001204:	24040032 	li	a0,50
10001208:	1600fff6 	bnez	s0,100011e4 <master_sendBuffer+0x30>
1000120c:	3c021000 	lui	v0,0x1000
10001210:	8fbf001c 	lw	ra,28(sp)
10001214:	24030001 	li	v1,1
10001218:	a04355a0 	sb	v1,21920(v0)
1000121c:	3c021000 	lui	v0,0x1000
10001220:	8fb20018 	lw	s2,24(sp)
10001224:	8fb10014 	lw	s1,20(sp)
10001228:	8fb00010 	lw	s0,16(sp)
1000122c:	24421618 	addiu	v0,v0,5656
10001230:	03e00008 	jr	ra
10001234:	27bd0020 	addiu	sp,sp,32

10001238 <slave_sendAck>:
10001238:	3c041000 	lui	a0,0x1000
1000123c:	27bdf8e8 	addiu	sp,sp,-1816
10001240:	24844b80 	addiu	a0,a0,19328
10001244:	afbf0714 	sw	ra,1812(sp)
10001248:	0c000a19 	jal	10002864 <printf>
1000124c:	afb00710 	sw	s0,1808(sp)
10001250:	3c041000 	lui	a0,0x1000
10001254:	0c000a19 	jal	10002864 <printf>
10001258:	24844b5c 	addiu	a0,a0,19292
1000125c:	24030001 	li	v1,1
10001260:	27a40028 	addiu	a0,sp,40
10001264:	00002825 	move	a1,zero
10001268:	240606e4 	li	a2,1764
1000126c:	3c021001 	lui	v0,0x1001
10001270:	0c000a0f 	jal	1000283c <memset>
10001274:	a04355b0 	sb	v1,21936(v0)
10001278:	0c000cad 	jal	100032b4 <hf_cpuid>
1000127c:	afa00024 	sw	zero,36(sp)
10001280:	afa2001c 	sw	v0,28(sp)
10001284:	24100003 	li	s0,3
10001288:	0c000cad 	jal	100032b4 <hf_cpuid>
1000128c:	2610ffff 	addiu	s0,s0,-1
10001290:	00023400 	sll	a2,v0,0x10
10001294:	27a40010 	addiu	a0,sp,16
10001298:	00063403 	sra	a2,a2,0x10
1000129c:	24071388 	li	a3,5000
100012a0:	0c000424 	jal	10001090 <sender>
100012a4:	24050004 	li	a1,4
100012a8:	27a40010 	addiu	a0,sp,16
100012ac:	00002825 	move	a1,zero
100012b0:	0c000a0f 	jal	1000283c <memset>
100012b4:	240606fc 	li	a2,1788
100012b8:	0c00067a 	jal	100019e8 <delay_ms>
100012bc:	24040032 	li	a0,50
100012c0:	1600fff1 	bnez	s0,10001288 <slave_sendAck+0x50>
100012c4:	3c021000 	lui	v0,0x1000
100012c8:	8fbf0714 	lw	ra,1812(sp)
100012cc:	8fb00710 	lw	s0,1808(sp)
100012d0:	24420cb4 	addiu	v0,v0,3252
100012d4:	03e00008 	jr	ra
100012d8:	27bd0718 	addiu	sp,sp,1816

100012dc <slave_sendPacket>:
100012dc:	3c021000 	lui	v0,0x1000
100012e0:	904355a0 	lbu	v1,21920(v0)
100012e4:	27bdffe0 	addiu	sp,sp,-32
100012e8:	afbf001c 	sw	ra,28(sp)
100012ec:	afb10018 	sw	s1,24(sp)
100012f0:	14600024 	bnez	v1,10001384 <slave_sendPacket+0xa8>
100012f4:	afb00014 	sw	s0,20(sp)
100012f8:	3c101009 	lui	s0,0x1009
100012fc:	26100a48 	addiu	s0,s0,2632
10001300:	24020002 	li	v0,2
10001304:	a2000014 	sb	zero,20(s0)
10001308:	a2000015 	sb	zero,21(s0)
1000130c:	a2000016 	sb	zero,22(s0)
10001310:	0c000cad 	jal	100032b4 <hf_cpuid>
10001314:	a2020017 	sb	v0,23(s0)
10001318:	00022e02 	srl	a1,v0,0x18
1000131c:	00022402 	srl	a0,v0,0x10
10001320:	00021a02 	srl	v1,v0,0x8
10001324:	a205000c 	sb	a1,12(s0)
10001328:	a204000d 	sb	a0,13(s0)
1000132c:	a203000e 	sb	v1,14(s0)
10001330:	a202000f 	sb	v0,15(s0)
10001334:	24110003 	li	s1,3
10001338:	0c000cad 	jal	100032b4 <hf_cpuid>
1000133c:	2631ffff 	addiu	s1,s1,-1
10001340:	00023400 	sll	a2,v0,0x10
10001344:	02002025 	move	a0,s0
10001348:	24050004 	li	a1,4
1000134c:	00063403 	sra	a2,a2,0x10
10001350:	0c000424 	jal	10001090 <sender>
10001354:	24071388 	li	a3,5000
10001358:	323100ff 	andi	s1,s1,0xff
1000135c:	0c00067a 	jal	100019e8 <delay_ms>
10001360:	24040032 	li	a0,50
10001364:	1620fff4 	bnez	s1,10001338 <slave_sendPacket+0x5c>
10001368:	3c021000 	lui	v0,0x1000
1000136c:	8fbf001c 	lw	ra,28(sp)
10001370:	8fb10018 	lw	s1,24(sp)
10001374:	8fb00014 	lw	s0,20(sp)
10001378:	244216e4 	addiu	v0,v0,5860
1000137c:	03e00008 	jr	ra
10001380:	27bd0020 	addiu	sp,sp,32
10001384:	3c041000 	lui	a0,0x1000
10001388:	24844b94 	addiu	a0,a0,19348
1000138c:	0c000a19 	jal	10002864 <printf>
10001390:	a04055a0 	sb	zero,21920(v0)
10001394:	080004bf 	j	100012fc <slave_sendPacket+0x20>
10001398:	3c101009 	lui	s0,0x1009

1000139c <slave_sendReady>:
1000139c:	3c041000 	lui	a0,0x1000
100013a0:	27bdf8e8 	addiu	sp,sp,-1816
100013a4:	afbf0714 	sw	ra,1812(sp)
100013a8:	0c000a19 	jal	10002864 <printf>
100013ac:	24844ba8 	addiu	a0,a0,19368
100013b0:	27a40010 	addiu	a0,sp,16
100013b4:	00002825 	move	a1,zero
100013b8:	0c000a0f 	jal	1000283c <memset>
100013bc:	240606fc 	li	a2,1788
100013c0:	24020001 	li	v0,1
100013c4:	0c000cad 	jal	100032b4 <hf_cpuid>
100013c8:	afa20024 	sw	v0,36(sp)
100013cc:	0c000cad 	jal	100032b4 <hf_cpuid>
100013d0:	afa2001c 	sw	v0,28(sp)
100013d4:	00023400 	sll	a2,v0,0x10
100013d8:	27a40010 	addiu	a0,sp,16
100013dc:	00063403 	sra	a2,a2,0x10
100013e0:	24050004 	li	a1,4
100013e4:	0c000424 	jal	10001090 <sender>
100013e8:	24071388 	li	a3,5000
100013ec:	8fbf0714 	lw	ra,1812(sp)
100013f0:	3c021000 	lui	v0,0x1000
100013f4:	2442176c 	addiu	v0,v0,5996
100013f8:	03e00008 	jr	ra
100013fc:	27bd0718 	addiu	sp,sp,1816

10001400 <receive>:
10001400:	27bdffd8 	addiu	sp,sp,-40
10001404:	30a5ffff 	andi	a1,a1,0xffff
10001408:	00803025 	move	a2,a0
1000140c:	afa50010 	sw	a1,16(sp)
10001410:	27a4001c 	addiu	a0,sp,28
10001414:	27a5001a 	addiu	a1,sp,26
10001418:	afbf0024 	sw	ra,36(sp)
1000141c:	0c000d25 	jal	10003494 <hf_recv>
10001420:	27a70018 	addiu	a3,sp,24
10001424:	00022c00 	sll	a1,v0,0x10
10001428:	00052c03 	sra	a1,a1,0x10
1000142c:	10a00004 	beqz	a1,10001440 <receive+0x40>
10001430:	00000000 	nop
10001434:	3c041000 	lui	a0,0x1000
10001438:	0c000a19 	jal	10002864 <printf>
1000143c:	24844bc4 	addiu	a0,a0,19396
10001440:	8fbf0024 	lw	ra,36(sp)
10001444:	00000000 	nop
10001448:	03e00008 	jr	ra
1000144c:	27bd0028 	addiu	sp,sp,40

10001450 <master_waitForBuffer>:
10001450:	3c021000 	lui	v0,0x1000
10001454:	27bdf8e0 	addiu	sp,sp,-1824
10001458:	904355a0 	lbu	v1,21920(v0)
1000145c:	24040005 	li	a0,5
10001460:	afb00714 	sw	s0,1812(sp)
10001464:	3c101009 	lui	s0,0x1009
10001468:	afbf071c 	sw	ra,1820(sp)
1000146c:	afb10718 	sw	s1,1816(sp)
10001470:	14600053 	bnez	v1,100015c0 <master_waitForBuffer+0x170>
10001474:	ae041178 	sw	a0,4472(s0)
10001478:	0c000d03 	jal	1000340c <hf_recvprobe>
1000147c:	00000000 	nop
10001480:	04400048 	bltz	v0,100015a4 <master_waitForBuffer+0x154>
10001484:	00408825 	move	s1,v0
10001488:	3c041000 	lui	a0,0x1000
1000148c:	0c000a19 	jal	10002864 <printf>
10001490:	24844bf8 	addiu	a0,a0,19448
10001494:	240606fc 	li	a2,1788
10001498:	27a40010 	addiu	a0,sp,16
1000149c:	0c000a0f 	jal	1000283c <memset>
100014a0:	00002825 	move	a1,zero
100014a4:	27a40010 	addiu	a0,sp,16
100014a8:	0c000500 	jal	10001400 <receive>
100014ac:	02202825 	move	a1,s1
100014b0:	8fa2001c 	lw	v0,28(sp)
100014b4:	3c041000 	lui	a0,0x1000
100014b8:	00402825 	move	a1,v0
100014bc:	24844c04 	addiu	a0,a0,19460
100014c0:	0c000a19 	jal	10002864 <printf>
100014c4:	ae021178 	sw	v0,4472(s0)
100014c8:	8fa50024 	lw	a1,36(sp)
100014cc:	24020001 	li	v0,1
100014d0:	10a2002a 	beq	a1,v0,1000157c <master_waitForBuffer+0x12c>
100014d4:	24020002 	li	v0,2
100014d8:	14a20041 	bne	a1,v0,100015e0 <master_waitForBuffer+0x190>
100014dc:	3c041000 	lui	a0,0x1000
100014e0:	3c041000 	lui	a0,0x1000
100014e4:	24844c38 	addiu	a0,a0,19512
100014e8:	0c000a19 	jal	10002864 <printf>
100014ec:	3c101009 	lui	s0,0x1009
100014f0:	26040a48 	addiu	a0,s0,2632
100014f4:	27a50010 	addiu	a1,sp,16
100014f8:	0c000a04 	jal	10002810 <memcpy>
100014fc:	240606fc 	li	a2,1788
10001500:	3c031009 	lui	v1,0x1009
10001504:	26020a48 	addiu	v0,s0,2632
10001508:	8c641178 	lw	a0,4472(v1)
1000150c:	90470008 	lbu	a3,8(v0)
10001510:	90460009 	lbu	a2,9(v0)
10001514:	00042880 	sll	a1,a0,0x2
10001518:	9043000a 	lbu	v1,10(v0)
1000151c:	3c041009 	lui	a0,0x1009
10001520:	00063400 	sll	a2,a2,0x10
10001524:	00073e00 	sll	a3,a3,0x18
10001528:	24840a38 	addiu	a0,a0,2616
1000152c:	00a42021 	addu	a0,a1,a0
10001530:	00031a00 	sll	v1,v1,0x8
10001534:	00c72825 	or	a1,a2,a3
10001538:	9046000b 	lbu	a2,11(v0)
1000153c:	00651025 	or	v0,v1,a1
10001540:	8c830000 	lw	v1,0(a0)
10001544:	00c21025 	or	v0,a2,v0
10001548:	1062002e 	beq	v1,v0,10001604 <master_waitForBuffer+0x1b4>
1000154c:	3c021001 	lui	v0,0x1001
10001550:	8c4555b4 	lw	a1,21940(v0)
10001554:	3c041000 	lui	a0,0x1000
10001558:	0c000a19 	jal	10002864 <printf>
1000155c:	24844c58 	addiu	a0,a0,19544
10001560:	8fbf071c 	lw	ra,1820(sp)
10001564:	3c021000 	lui	v0,0x1000
10001568:	8fb10718 	lw	s1,1816(sp)
1000156c:	8fb00714 	lw	s0,1812(sp)
10001570:	24421138 	addiu	v0,v0,4408
10001574:	03e00008 	jr	ra
10001578:	27bd0720 	addiu	sp,sp,1824
1000157c:	3c041000 	lui	a0,0x1000
10001580:	0c000a19 	jal	10002864 <printf>
10001584:	24844c1c 	addiu	a0,a0,19484
10001588:	8fbf071c 	lw	ra,1820(sp)
1000158c:	3c021000 	lui	v0,0x1000
10001590:	8fb10718 	lw	s1,1816(sp)
10001594:	8fb00714 	lw	s0,1812(sp)
10001598:	24420ad8 	addiu	v0,v0,2776
1000159c:	03e00008 	jr	ra
100015a0:	27bd0720 	addiu	sp,sp,1824
100015a4:	8fbf071c 	lw	ra,1820(sp)
100015a8:	3c021000 	lui	v0,0x1000
100015ac:	8fb10718 	lw	s1,1816(sp)
100015b0:	8fb00714 	lw	s0,1812(sp)
100015b4:	24421450 	addiu	v0,v0,5200
100015b8:	03e00008 	jr	ra
100015bc:	27bd0720 	addiu	sp,sp,1824
100015c0:	3c041000 	lui	a0,0x1000
100015c4:	3c031001 	lui	v1,0x1001
100015c8:	24844bdc 	addiu	a0,a0,19420
100015cc:	a06055b1 	sb	zero,21937(v1)
100015d0:	0c000a19 	jal	10002864 <printf>
100015d4:	a04055a0 	sb	zero,21920(v0)
100015d8:	0800051e 	j	10001478 <master_waitForBuffer+0x28>
100015dc:	00000000 	nop
100015e0:	0c000a19 	jal	10002864 <printf>
100015e4:	24844c68 	addiu	a0,a0,19560
100015e8:	8fbf071c 	lw	ra,1820(sp)
100015ec:	3c021000 	lui	v0,0x1000
100015f0:	8fb10718 	lw	s1,1816(sp)
100015f4:	8fb00714 	lw	s0,1812(sp)
100015f8:	24421450 	addiu	v0,v0,5200
100015fc:	03e00008 	jr	ra
10001600:	27bd0720 	addiu	sp,sp,1824
10001604:	8c4555b4 	lw	a1,21940(v0)
10001608:	00000000 	nop
1000160c:	24a50001 	addiu	a1,a1,1
10001610:	08000555 	j	10001554 <master_waitForBuffer+0x104>
10001614:	ac4555b4 	sw	a1,21940(v0)

10001618 <master_waitAck>:
10001618:	3c021000 	lui	v0,0x1000
1000161c:	904355a0 	lbu	v1,21920(v0)
10001620:	27bdf8e0 	addiu	sp,sp,-1824
10001624:	afbf071c 	sw	ra,1820(sp)
10001628:	afb10718 	sw	s1,1816(sp)
1000162c:	1460001b 	bnez	v1,1000169c <master_waitAck+0x84>
10001630:	afb00714 	sw	s0,1812(sp)
10001634:	0c000d03 	jal	1000340c <hf_recvprobe>
10001638:	00000000 	nop
1000163c:	04400010 	bltz	v0,10001680 <master_waitAck+0x68>
10001640:	00408025 	move	s0,v0
10001644:	240606fc 	li	a2,1788
10001648:	27a40010 	addiu	a0,sp,16
1000164c:	0c000a0f 	jal	1000283c <memset>
10001650:	00002825 	move	a1,zero
10001654:	27a40010 	addiu	a0,sp,16
10001658:	0c000500 	jal	10001400 <receive>
1000165c:	02002825 	move	a1,s0
10001660:	8fa20024 	lw	v0,36(sp)
10001664:	00000000 	nop
10001668:	14400005 	bnez	v0,10001680 <master_waitAck+0x68>
1000166c:	3c111009 	lui	s1,0x1009
10001670:	8e221178 	lw	v0,4472(s1)
10001674:	00000000 	nop
10001678:	1202000e 	beq	s0,v0,100016b4 <master_waitAck+0x9c>
1000167c:	3c041000 	lui	a0,0x1000
10001680:	3c021000 	lui	v0,0x1000
10001684:	24421618 	addiu	v0,v0,5656
10001688:	8fbf071c 	lw	ra,1820(sp)
1000168c:	8fb10718 	lw	s1,1816(sp)
10001690:	8fb00714 	lw	s0,1812(sp)
10001694:	03e00008 	jr	ra
10001698:	27bd0720 	addiu	sp,sp,1824
1000169c:	3c041000 	lui	a0,0x1000
100016a0:	24844c7c 	addiu	a0,a0,19580
100016a4:	0c000a19 	jal	10002864 <printf>
100016a8:	a04055a0 	sb	zero,21920(v0)
100016ac:	0800058d 	j	10001634 <master_waitAck+0x1c>
100016b0:	00000000 	nop
100016b4:	24844c90 	addiu	a0,a0,19600
100016b8:	0c000a19 	jal	10002864 <printf>
100016bc:	02002825 	move	a1,s0
100016c0:	24020005 	li	v0,5
100016c4:	27a40010 	addiu	a0,sp,16
100016c8:	00002825 	move	a1,zero
100016cc:	240606fc 	li	a2,1788
100016d0:	0c000a0f 	jal	1000283c <memset>
100016d4:	ae221178 	sw	v0,4472(s1)
100016d8:	3c021000 	lui	v0,0x1000
100016dc:	080005a2 	j	10001688 <master_waitAck+0x70>
100016e0:	24420de4 	addiu	v0,v0,3556

100016e4 <slave_waitAck>:
100016e4:	3c041000 	lui	a0,0x1000
100016e8:	27bdf8e8 	addiu	sp,sp,-1816
100016ec:	afbf0714 	sw	ra,1812(sp)
100016f0:	0c000a19 	jal	10002864 <printf>
100016f4:	24844c7c 	addiu	a0,a0,19580
100016f8:	0c00067a 	jal	100019e8 <delay_ms>
100016fc:	24040032 	li	a0,50
10001700:	0c000d03 	jal	1000340c <hf_recvprobe>
10001704:	00000000 	nop
10001708:	00002825 	move	a1,zero
1000170c:	240606fc 	li	a2,1788
10001710:	0c000a0f 	jal	1000283c <memset>
10001714:	27a40010 	addiu	a0,sp,16
10001718:	27a40010 	addiu	a0,sp,16
1000171c:	0c000500 	jal	10001400 <receive>
10001720:	24050004 	li	a1,4
10001724:	8fa20024 	lw	v0,36(sp)
10001728:	00000000 	nop
1000172c:	10400008 	beqz	v0,10001750 <slave_waitAck+0x6c>
10001730:	3c041000 	lui	a0,0x1000
10001734:	0c00067a 	jal	100019e8 <delay_ms>
10001738:	2404012c 	li	a0,300
1000173c:	8fbf0714 	lw	ra,1812(sp)
10001740:	3c021000 	lui	v0,0x1000
10001744:	244212dc 	addiu	v0,v0,4828
10001748:	03e00008 	jr	ra
1000174c:	27bd0718 	addiu	sp,sp,1816
10001750:	0c000a19 	jal	10002864 <printf>
10001754:	24844cac 	addiu	a0,a0,19628
10001758:	8fbf0714 	lw	ra,1812(sp)
1000175c:	3c021000 	lui	v0,0x1000
10001760:	2442176c 	addiu	v0,v0,5996
10001764:	03e00008 	jr	ra
10001768:	27bd0718 	addiu	sp,sp,1816

1000176c <slave_waitingForPacket>:
1000176c:	3c041000 	lui	a0,0x1000
10001770:	27bdffe8 	addiu	sp,sp,-24
10001774:	24844cbc 	addiu	a0,a0,19644
10001778:	afbf0014 	sw	ra,20(sp)
1000177c:	0c000a19 	jal	10002864 <printf>
10001780:	afb00010 	sw	s0,16(sp)
10001784:	0c000d03 	jal	1000340c <hf_recvprobe>
10001788:	00000000 	nop
1000178c:	04400016 	bltz	v0,100017e8 <slave_waitingForPacket+0x7c>
10001790:	3c101009 	lui	s0,0x1009
10001794:	26040a48 	addiu	a0,s0,2632
10001798:	00002825 	move	a1,zero
1000179c:	0c000a0f 	jal	1000283c <memset>
100017a0:	240606fc 	li	a2,1788
100017a4:	26040a48 	addiu	a0,s0,2632
100017a8:	0c000500 	jal	10001400 <receive>
100017ac:	24050004 	li	a1,4
100017b0:	26020a48 	addiu	v0,s0,2632
100017b4:	90450014 	lbu	a1,20(v0)
100017b8:	90440015 	lbu	a0,21(v0)
100017bc:	90430016 	lbu	v1,22(v0)
100017c0:	00052e00 	sll	a1,a1,0x18
100017c4:	00042400 	sll	a0,a0,0x10
100017c8:	00852025 	or	a0,a0,a1
100017cc:	00031a00 	sll	v1,v1,0x8
100017d0:	90450017 	lbu	a1,23(v0)
100017d4:	00641025 	or	v0,v1,a0
100017d8:	00a21025 	or	v0,a1,v0
100017dc:	24030002 	li	v1,2
100017e0:	10430013 	beq	v0,v1,10001830 <slave_waitingForPacket+0xc4>
100017e4:	3c021000 	lui	v0,0x1000
100017e8:	3c021001 	lui	v0,0x1001
100017ec:	904255b0 	lbu	v0,21936(v0)
100017f0:	00000000 	nop
100017f4:	10400006 	beqz	v0,10001810 <slave_waitingForPacket+0xa4>
100017f8:	3c021000 	lui	v0,0x1000
100017fc:	8fbf0014 	lw	ra,20(sp)
10001800:	8fb00010 	lw	s0,16(sp)
10001804:	244212dc 	addiu	v0,v0,4828
10001808:	03e00008 	jr	ra
1000180c:	27bd0018 	addiu	sp,sp,24
10001810:	0c00067a 	jal	100019e8 <delay_ms>
10001814:	2404012c 	li	a0,300
10001818:	8fbf0014 	lw	ra,20(sp)
1000181c:	3c021000 	lui	v0,0x1000
10001820:	8fb00010 	lw	s0,16(sp)
10001824:	2442139c 	addiu	v0,v0,5020
10001828:	03e00008 	jr	ra
1000182c:	27bd0018 	addiu	sp,sp,24
10001830:	8fbf0014 	lw	ra,20(sp)
10001834:	8fb00010 	lw	s0,16(sp)
10001838:	24421238 	addiu	v0,v0,4664
1000183c:	03e00008 	jr	ra
10001840:	27bd0018 	addiu	sp,sp,24

10001844 <app_main>:
10001844:	27bdffe0 	addiu	sp,sp,-32
10001848:	afbf001c 	sw	ra,28(sp)
1000184c:	0c000cad 	jal	100032b4 <hf_cpuid>
10001850:	00000000 	nop
10001854:	24030004 	li	v1,4
10001858:	10430027 	beq	v0,v1,100018f8 <app_main+0xb4>
1000185c:	3c021000 	lui	v0,0x1000
10001860:	0c000cad 	jal	100032b4 <hf_cpuid>
10001864:	00000000 	nop
10001868:	10400014 	beqz	v0,100018bc <app_main+0x78>
1000186c:	3c021000 	lui	v0,0x1000
10001870:	0c000cad 	jal	100032b4 <hf_cpuid>
10001874:	00000000 	nop
10001878:	24030001 	li	v1,1
1000187c:	1043002d 	beq	v0,v1,10001934 <app_main+0xf0>
10001880:	3c021000 	lui	v0,0x1000
10001884:	0c000cad 	jal	100032b4 <hf_cpuid>
10001888:	00000000 	nop
1000188c:	24030002 	li	v1,2
10001890:	10430035 	beq	v0,v1,10001968 <app_main+0x124>
10001894:	3c021000 	lui	v0,0x1000
10001898:	0c000cad 	jal	100032b4 <hf_cpuid>
1000189c:	00000000 	nop
100018a0:	24030003 	li	v1,3
100018a4:	1043003d 	beq	v0,v1,1000199c <app_main+0x158>
100018a8:	3c021000 	lui	v0,0x1000
100018ac:	8fbf001c 	lw	ra,28(sp)
100018b0:	00000000 	nop
100018b4:	03e00008 	jr	ra
100018b8:	27bd0020 	addiu	sp,sp,32
100018bc:	24424ce0 	addiu	v0,v0,19680
100018c0:	afa20010 	sw	v0,16(sp)
100018c4:	3c020001 	lui	v0,0x1
100018c8:	24425f90 	addiu	v0,v0,24464
100018cc:	3c041000 	lui	a0,0x1000
100018d0:	afa20014 	sw	v0,20(sp)
100018d4:	24840fc0 	addiu	a0,a0,4032
100018d8:	00002825 	move	a1,zero
100018dc:	00003025 	move	a2,zero
100018e0:	0c001189 	jal	10004624 <hf_spawn>
100018e4:	00003825 	move	a3,zero
100018e8:	8fbf001c 	lw	ra,28(sp)
100018ec:	00000000 	nop
100018f0:	03e00008 	jr	ra
100018f4:	27bd0020 	addiu	sp,sp,32
100018f8:	24424cd8 	addiu	v0,v0,19672
100018fc:	afa20010 	sw	v0,16(sp)
10001900:	3c020001 	lui	v0,0x1
10001904:	344286a0 	ori	v0,v0,0x86a0
10001908:	3c041000 	lui	a0,0x1000
1000190c:	afa20014 	sw	v0,20(sp)
10001910:	24841028 	addiu	a0,a0,4136
10001914:	00002825 	move	a1,zero
10001918:	00003025 	move	a2,zero
1000191c:	0c001189 	jal	10004624 <hf_spawn>
10001920:	00003825 	move	a3,zero
10001924:	8fbf001c 	lw	ra,28(sp)
10001928:	00000000 	nop
1000192c:	03e00008 	jr	ra
10001930:	27bd0020 	addiu	sp,sp,32
10001934:	24424ce8 	addiu	v0,v0,19688
10001938:	afa20010 	sw	v0,16(sp)
1000193c:	3c020001 	lui	v0,0x1
10001940:	24425f90 	addiu	v0,v0,24464
10001944:	3c041000 	lui	a0,0x1000
10001948:	afa20014 	sw	v0,20(sp)
1000194c:	24840f80 	addiu	a0,a0,3968
10001950:	00002825 	move	a1,zero
10001954:	00003025 	move	a2,zero
10001958:	0c001189 	jal	10004624 <hf_spawn>
1000195c:	00003825 	move	a3,zero
10001960:	0800062b 	j	100018ac <app_main+0x68>
10001964:	00000000 	nop
10001968:	24424cf0 	addiu	v0,v0,19696
1000196c:	afa20010 	sw	v0,16(sp)
10001970:	3c020001 	lui	v0,0x1
10001974:	24425f90 	addiu	v0,v0,24464
10001978:	3c041000 	lui	a0,0x1000
1000197c:	afa20014 	sw	v0,20(sp)
10001980:	24840f40 	addiu	a0,a0,3904
10001984:	00002825 	move	a1,zero
10001988:	00003025 	move	a2,zero
1000198c:	0c001189 	jal	10004624 <hf_spawn>
10001990:	00003825 	move	a3,zero
10001994:	0800062b 	j	100018ac <app_main+0x68>
10001998:	00000000 	nop
1000199c:	24424cf8 	addiu	v0,v0,19704
100019a0:	afa20010 	sw	v0,16(sp)
100019a4:	3c020001 	lui	v0,0x1
100019a8:	24425f90 	addiu	v0,v0,24464
100019ac:	3c041000 	lui	a0,0x1000
100019b0:	afa20014 	sw	v0,20(sp)
100019b4:	24840f00 	addiu	a0,a0,3840
100019b8:	00002825 	move	a1,zero
100019bc:	00003025 	move	a2,zero
100019c0:	0c001189 	jal	10004624 <hf_spawn>
100019c4:	00003825 	move	a3,zero
100019c8:	0800062b 	j	100018ac <app_main+0x68>
100019cc:	00000000 	nop

100019d0 <_idletask>:
100019d0:	08000674 	j	100019d0 <_idletask>
100019d4:	00000000 	nop

100019d8 <putchar>:
100019d8:	3c022000 	lui	v0,0x2000
100019dc:	ac4400d0 	sw	a0,208(v0)
100019e0:	03e00008 	jr	ra
100019e4:	00000000 	nop

100019e8 <delay_ms>:
100019e8:	3c022000 	lui	v0,0x2000
100019ec:	8c420060 	lw	v0,96(v0)
100019f0:	27bdfff0 	addiu	sp,sp,-16
100019f4:	3c07017d 	lui	a3,0x17d
100019f8:	3c052000 	lui	a1,0x2000
100019fc:	afa20008 	sw	v0,8(sp)
10001a00:	24e77840 	addiu	a3,a3,30784
10001a04:	afa00000 	sw	zero,0(sp)
10001a08:	240861a8 	li	t0,25000
10001a0c:	afa00004 	sw	zero,4(sp)
10001a10:	08000696 	j	10001a58 <delay_ms+0x70>
10001a14:	00000000 	nop
10001a18:	8fa3000c 	lw	v1,12(sp)
10001a1c:	8fa60008 	lw	a2,8(sp)
10001a20:	8fa20004 	lw	v0,4(sp)
10001a24:	00000000 	nop
10001a28:	00621021 	addu	v0,v1,v0
10001a2c:	00471021 	addu	v0,v0,a3
10001a30:	00461023 	subu	v0,v0,a2
10001a34:	afa20004 	sw	v0,4(sp)
10001a38:	8fa2000c 	lw	v0,12(sp)
10001a3c:	00000000 	nop
10001a40:	afa20008 	sw	v0,8(sp)
10001a44:	8fa20004 	lw	v0,4(sp)
10001a48:	00000000 	nop
10001a4c:	2c4261a8 	sltiu	v0,v0,25000
10001a50:	1040001e 	beqz	v0,10001acc <delay_ms+0xe4>
10001a54:	00000000 	nop
10001a58:	8fa20000 	lw	v0,0(sp)
10001a5c:	00000000 	nop
10001a60:	0044102b 	sltu	v0,v0,a0
10001a64:	10400029 	beqz	v0,10001b0c <delay_ms+0x124>
10001a68:	00000000 	nop
10001a6c:	8ca20060 	lw	v0,96(a1)
10001a70:	00000000 	nop
10001a74:	afa2000c 	sw	v0,12(sp)
10001a78:	8fa2000c 	lw	v0,12(sp)
10001a7c:	8fa30008 	lw	v1,8(sp)
10001a80:	00000000 	nop
10001a84:	0043102b 	sltu	v0,v0,v1
10001a88:	1440ffe3 	bnez	v0,10001a18 <delay_ms+0x30>
10001a8c:	00000000 	nop
10001a90:	8fa2000c 	lw	v0,12(sp)
10001a94:	8fa60008 	lw	a2,8(sp)
10001a98:	8fa30004 	lw	v1,4(sp)
10001a9c:	00000000 	nop
10001aa0:	00621021 	addu	v0,v1,v0
10001aa4:	00461023 	subu	v0,v0,a2
10001aa8:	afa20004 	sw	v0,4(sp)
10001aac:	8fa2000c 	lw	v0,12(sp)
10001ab0:	00000000 	nop
10001ab4:	afa20008 	sw	v0,8(sp)
10001ab8:	8fa20004 	lw	v0,4(sp)
10001abc:	00000000 	nop
10001ac0:	2c4261a8 	sltiu	v0,v0,25000
10001ac4:	1440ffe4 	bnez	v0,10001a58 <delay_ms+0x70>
10001ac8:	00000000 	nop
10001acc:	8fa20004 	lw	v0,4(sp)
10001ad0:	8fa30000 	lw	v1,0(sp)
10001ad4:	0048001b 	divu	zero,v0,t0
10001ad8:	00001012 	mflo	v0
10001adc:	00431021 	addu	v0,v0,v1
10001ae0:	afa20000 	sw	v0,0(sp)
10001ae4:	8fa20004 	lw	v0,4(sp)
10001ae8:	00000000 	nop
10001aec:	0048001b 	divu	zero,v0,t0
10001af0:	00001010 	mfhi	v0
10001af4:	afa20004 	sw	v0,4(sp)
10001af8:	8fa20000 	lw	v0,0(sp)
10001afc:	00000000 	nop
10001b00:	0044102b 	sltu	v0,v0,a0
10001b04:	1440ffd9 	bnez	v0,10001a6c <delay_ms+0x84>
10001b08:	00000000 	nop
10001b0c:	03e00008 	jr	ra
10001b10:	27bd0010 	addiu	sp,sp,16

10001b14 <_hardware_init>:
10001b14:	3c032000 	lui	v1,0x2000
10001b18:	3c02a5a5 	lui	v0,0xa5a5
10001b1c:	8c6400e0 	lw	a0,224(v1)
10001b20:	3442a5a5 	ori	v0,v0,0xa5a5
10001b24:	14820007 	bne	a0,v0,10001b44 <_hardware_init+0x30>
10001b28:	3c022000 	lui	v0,0x2000
10001b2c:	3c02017d 	lui	v0,0x17d
10001b30:	24427840 	addiu	v0,v0,30784
10001b34:	ac6200a0 	sw	v0,160(v1)
10001b38:	3c020004 	lui	v0,0x4
10001b3c:	ac6200b0 	sw	v0,176(v1)
10001b40:	3c022000 	lui	v0,0x2000
10001b44:	ac400010 	sw	zero,16(v0)
10001b48:	03e00008 	jr	ra
10001b4c:	00000000 	nop

10001b50 <_vm_init>:
10001b50:	3c041000 	lui	a0,0x1000
10001b54:	27bdffe8 	addiu	sp,sp,-24
10001b58:	afbf0014 	sw	ra,20(sp)
10001b5c:	0c00080f 	jal	1000203c <kprintf>
10001b60:	24844d00 	addiu	a0,a0,19712
10001b64:	8fbf0014 	lw	ra,20(sp)
10001b68:	3c041001 	lui	a0,0x1001
10001b6c:	3c050007 	lui	a1,0x7
10001b70:	2484684c 	addiu	a0,a0,26700
10001b74:	34a5a120 	ori	a1,a1,0xa120
10001b78:	08000b50 	j	10002d40 <heapinit>
10001b7c:	27bd0018 	addiu	sp,sp,24

10001b80 <_sched_init>:
10001b80:	3c041000 	lui	a0,0x1000
10001b84:	0800080f 	j	1000203c <kprintf>
10001b88:	24844d14 	addiu	a0,a0,19732

10001b8c <_timer_init>:
10001b8c:	27bdffe8 	addiu	sp,sp,-24
10001b90:	3c041000 	lui	a0,0x1000
10001b94:	24844d28 	addiu	a0,a0,19752
10001b98:	afb00010 	sw	s0,16(sp)
10001b9c:	afbf0014 	sw	ra,20(sp)
10001ba0:	0c00080f 	jal	1000203c <kprintf>
10001ba4:	3c101000 	lui	s0,0x1000
10001ba8:	26054120 	addiu	a1,s0,16672
10001bac:	0c00078f 	jal	10001e3c <_irq_register>
10001bb0:	24040008 	li	a0,8
10001bb4:	26054120 	addiu	a1,s0,16672
10001bb8:	0c00078f 	jal	10001e3c <_irq_register>
10001bbc:	24040004 	li	a0,4
10001bc0:	3c032000 	lui	v1,0x2000
10001bc4:	8c620010 	lw	v0,16(v1)
10001bc8:	8fbf0014 	lw	ra,20(sp)
10001bcc:	34420008 	ori	v0,v0,0x8
10001bd0:	8fb00010 	lw	s0,16(sp)
10001bd4:	ac620010 	sw	v0,16(v1)
10001bd8:	03e00008 	jr	ra
10001bdc:	27bd0018 	addiu	sp,sp,24

10001be0 <_irq_init>:
10001be0:	3c041000 	lui	a0,0x1000
10001be4:	0800080f 	j	1000203c <kprintf>
10001be8:	24844d3c 	addiu	a0,a0,19772

10001bec <_device_init>:
10001bec:	3c041000 	lui	a0,0x1000
10001bf0:	27bdffe8 	addiu	sp,sp,-24
10001bf4:	afbf0014 	sw	ra,20(sp)
10001bf8:	0c00080f 	jal	1000203c <kprintf>
10001bfc:	24844d50 	addiu	a0,a0,19792
10001c00:	8fbf0014 	lw	ra,20(sp)
10001c04:	08000c64 	j	10003190 <ni_init>
10001c08:	27bd0018 	addiu	sp,sp,24

10001c0c <_task_init>:
10001c0c:	3c041000 	lui	a0,0x1000
10001c10:	27bdffe0 	addiu	sp,sp,-32
10001c14:	24844d68 	addiu	a0,a0,19816
10001c18:	afbf001c 	sw	ra,28(sp)
10001c1c:	0c00080f 	jal	1000203c <kprintf>
10001c20:	afb00018 	sw	s0,24(sp)
10001c24:	3c021000 	lui	v0,0x1000
10001c28:	24425528 	addiu	v0,v0,21800
10001c2c:	afa20010 	sw	v0,16(sp)
10001c30:	3c041000 	lui	a0,0x1000
10001c34:	24020400 	li	v0,1024
10001c38:	00003025 	move	a2,zero
10001c3c:	00003825 	move	a3,zero
10001c40:	248419d0 	addiu	a0,a0,6608
10001c44:	00002825 	move	a1,zero
10001c48:	0c001189 	jal	10004624 <hf_spawn>
10001c4c:	afa20014 	sw	v0,20(sp)
10001c50:	0c000611 	jal	10001844 <app_main>
10001c54:	3c101009 	lui	s0,0x1009
10001c58:	3c021009 	lui	v0,0x1009
10001c5c:	8c451154 	lw	a1,4436(v0)
10001c60:	3c041000 	lui	a0,0x1000
10001c64:	0c00080f 	jal	1000203c <kprintf>
10001c68:	24844d7c 	addiu	a0,a0,19836
10001c6c:	3c041000 	lui	a0,0x1000
10001c70:	0c00080f 	jal	1000203c <kprintf>
10001c74:	24844d9c 	addiu	a0,a0,19868
10001c78:	3c021001 	lui	v0,0x1001
10001c7c:	00002025 	move	a0,zero
10001c80:	2442567c 	addiu	v0,v0,22140
10001c84:	0c000f28 	jal	10003ca0 <hf_schedlock>
10001c88:	ae021148 	sw	v0,4424(s0)
10001c8c:	8e041148 	lw	a0,4424(s0)
10001c90:	8fbf001c 	lw	ra,28(sp)
10001c94:	8fb00018 	lw	s0,24(sp)
10001c98:	24050001 	li	a1,1
10001c9c:	24840038 	addiu	a0,a0,56
10001ca0:	0800009d 	j	10000274 <_context_restore>
10001ca4:	27bd0020 	addiu	sp,sp,32

10001ca8 <_set_task_sp>:
10001ca8:	3084ffff 	andi	a0,a0,0xffff
10001cac:	00041880 	sll	v1,a0,0x2
10001cb0:	00041100 	sll	v0,a0,0x4
10001cb4:	00621021 	addu	v0,v1,v0
10001cb8:	00442023 	subu	a0,v0,a0
10001cbc:	000410c0 	sll	v0,a0,0x3
10001cc0:	3c041001 	lui	a0,0x1001
10001cc4:	2484567c 	addiu	a0,a0,22140
10001cc8:	00442021 	addu	a0,v0,a0
10001ccc:	03e00008 	jr	ra
10001cd0:	ac850060 	sw	a1,96(a0)

10001cd4 <_get_task_sp>:
10001cd4:	3084ffff 	andi	a0,a0,0xffff
10001cd8:	00041880 	sll	v1,a0,0x2
10001cdc:	00041100 	sll	v0,a0,0x4
10001ce0:	00621021 	addu	v0,v1,v0
10001ce4:	00442023 	subu	a0,v0,a0
10001ce8:	000410c0 	sll	v0,a0,0x3
10001cec:	3c041001 	lui	a0,0x1001
10001cf0:	2484567c 	addiu	a0,a0,22140
10001cf4:	00442021 	addu	a0,v0,a0
10001cf8:	8c820060 	lw	v0,96(a0)
10001cfc:	03e00008 	jr	ra
10001d00:	00000000 	nop

10001d04 <_set_task_tp>:
10001d04:	3084ffff 	andi	a0,a0,0xffff
10001d08:	00041880 	sll	v1,a0,0x2
10001d0c:	00041100 	sll	v0,a0,0x4
10001d10:	00621021 	addu	v0,v1,v0
10001d14:	00442023 	subu	a0,v0,a0
10001d18:	000410c0 	sll	v0,a0,0x3
10001d1c:	3c041001 	lui	a0,0x1001
10001d20:	2484567c 	addiu	a0,a0,22140
10001d24:	00442021 	addu	a0,v0,a0
10001d28:	03e00008 	jr	ra
10001d2c:	ac850064 	sw	a1,100(a0)

10001d30 <_readcounter>:
10001d30:	3c022000 	lui	v0,0x2000
10001d34:	8c420060 	lw	v0,96(v0)
10001d38:	03e00008 	jr	ra
10001d3c:	00000000 	nop

10001d40 <_read_us>:
10001d40:	3c051001 	lui	a1,0x1001
10001d44:	8ca255cc 	lw	v0,21964(a1)
10001d48:	27bdffe8 	addiu	sp,sp,-24
10001d4c:	3c032000 	lui	v1,0x2000
10001d50:	14400015 	bnez	v0,10001da8 <_read_us+0x68>
10001d54:	afbf0014 	sw	ra,20(sp)
10001d58:	8c620060 	lw	v0,96(v1)
10001d5c:	3c021001 	lui	v0,0x1001
10001d60:	8c4255c8 	lw	v0,21960(v0)
10001d64:	8c630060 	lw	v1,96(v1)
10001d68:	3c042000 	lui	a0,0x2000
10001d6c:	8c860060 	lw	a2,96(a0)
10001d70:	3c031001 	lui	v1,0x1001
10001d74:	aca655cc 	sw	a2,21964(a1)
10001d78:	8c880060 	lw	t0,96(a0)
10001d7c:	24070019 	li	a3,25
10001d80:	00402025 	move	a0,v0
10001d84:	01002825 	move	a1,t0
10001d88:	00003025 	move	a2,zero
10001d8c:	ac6255c0 	sw	v0,21952(v1)
10001d90:	0c000a2d 	jal	100028b4 <__udivdi3>
10001d94:	ac6855c4 	sw	t0,21956(v1)
10001d98:	8fbf0014 	lw	ra,20(sp)
10001d9c:	00000000 	nop
10001da0:	03e00008 	jr	ra
10001da4:	27bd0018 	addiu	sp,sp,24
10001da8:	8c630060 	lw	v1,96(v1)
10001dac:	00000000 	nop
10001db0:	0062102b 	sltu	v0,v1,v0
10001db4:	10400006 	beqz	v0,10001dd0 <_read_us+0x90>
10001db8:	3c031001 	lui	v1,0x1001
10001dbc:	8c6255c8 	lw	v0,21960(v1)
10001dc0:	00000000 	nop
10001dc4:	24420001 	addiu	v0,v0,1
10001dc8:	0800075a 	j	10001d68 <_read_us+0x28>
10001dcc:	ac6255c8 	sw	v0,21960(v1)
10001dd0:	3c021001 	lui	v0,0x1001
10001dd4:	8c4255c8 	lw	v0,21960(v0)
10001dd8:	0800075b 	j	10001d6c <_read_us+0x2c>
10001ddc:	3c042000 	lui	a0,0x2000

10001de0 <_timer_reset>:
10001de0:	3c032000 	lui	v1,0x2000
10001de4:	8c620010 	lw	v0,16(v1)
10001de8:	27bdffe8 	addiu	sp,sp,-24
10001dec:	3842000c 	xori	v0,v0,0xc
10001df0:	afbf0014 	sw	ra,20(sp)
10001df4:	ac620010 	sw	v0,16(v1)
10001df8:	0c000750 	jal	10001d40 <_read_us>
10001dfc:	00000000 	nop
10001e00:	3c041001 	lui	a0,0x1001
10001e04:	8c8255d0 	lw	v0,21968(a0)
10001e08:	3c051001 	lui	a1,0x1001
10001e0c:	8fbf0014 	lw	ra,20(sp)
10001e10:	00621023 	subu	v0,v1,v0
10001e14:	aca355d4 	sw	v1,21972(a1)
10001e18:	3c051009 	lui	a1,0x1009
10001e1c:	aca20980 	sw	v0,2432(a1)
10001e20:	ac8355d0 	sw	v1,21968(a0)
10001e24:	03e00008 	jr	ra
10001e28:	27bd0018 	addiu	sp,sp,24

10001e2c <_panic>:
10001e2c:	3c02e000 	lui	v0,0xe000
10001e30:	ac400000 	sw	zero,0(v0)
10001e34:	03e00008 	jr	ra
10001e38:	00000000 	nop

10001e3c <_irq_register>:
10001e3c:	3c061001 	lui	a2,0x1001
10001e40:	24c655d8 	addiu	a2,a2,21976
10001e44:	00001025 	move	v0,zero
10001e48:	24080001 	li	t0,1
10001e4c:	24070020 	li	a3,32
10001e50:	00481804 	sllv	v1,t0,v0
10001e54:	00641824 	and	v1,v1,a0
10001e58:	10600002 	beqz	v1,10001e64 <_irq_register+0x28>
10001e5c:	24420001 	addiu	v0,v0,1
10001e60:	acc50000 	sw	a1,0(a2)
10001e64:	1447fffa 	bne	v0,a3,10001e50 <_irq_register+0x14>
10001e68:	24c60004 	addiu	a2,a2,4
10001e6c:	03e00008 	jr	ra
10001e70:	00000000 	nop

10001e74 <_irq_handler>:
10001e74:	3c021009 	lui	v0,0x1009
10001e78:	2442096c 	addiu	v0,v0,2412
10001e7c:	8c430010 	lw	v1,16(v0)
10001e80:	27bdffe0 	addiu	sp,sp,-32
10001e84:	24630001 	addiu	v1,v1,1
10001e88:	afb10014 	sw	s1,20(sp)
10001e8c:	3c111001 	lui	s1,0x1001
10001e90:	afb20018 	sw	s2,24(sp)
10001e94:	afb00010 	sw	s0,16(sp)
10001e98:	afbf001c 	sw	ra,28(sp)
10001e9c:	00808025 	move	s0,a0
10001ea0:	00a09025 	move	s2,a1
10001ea4:	ac430010 	sw	v1,16(v0)
10001ea8:	263155d8 	addiu	s1,s1,21976
10001eac:	32020001 	andi	v0,s0,0x1
10001eb0:	10400007 	beqz	v0,10001ed0 <_irq_handler+0x5c>
10001eb4:	00108042 	srl	s0,s0,0x1
10001eb8:	8e220000 	lw	v0,0(s1)
10001ebc:	00000000 	nop
10001ec0:	10400003 	beqz	v0,10001ed0 <_irq_handler+0x5c>
10001ec4:	02402025 	move	a0,s2
10001ec8:	0040f809 	jalr	v0
10001ecc:	00000000 	nop
10001ed0:	1600fff6 	bnez	s0,10001eac <_irq_handler+0x38>
10001ed4:	26310004 	addiu	s1,s1,4
10001ed8:	8fbf001c 	lw	ra,28(sp)
10001edc:	8fb20018 	lw	s2,24(sp)
10001ee0:	8fb10014 	lw	s1,20(sp)
10001ee4:	8fb00010 	lw	s0,16(sp)
10001ee8:	03e00008 	jr	ra
10001eec:	27bd0020 	addiu	sp,sp,32

10001ef0 <_irq_mask_set>:
10001ef0:	27bdffe8 	addiu	sp,sp,-24
10001ef4:	afb00010 	sw	s0,16(sp)
10001ef8:	00808025 	move	s0,a0
10001efc:	afbf0014 	sw	ra,20(sp)
10001f00:	0c00007b 	jal	100001ec <_interrupt_set>
10001f04:	00002025 	move	a0,zero
10001f08:	3c032000 	lui	v1,0x2000
10001f0c:	8c650010 	lw	a1,16(v1)
10001f10:	8fbf0014 	lw	ra,20(sp)
10001f14:	02058025 	or	s0,s0,a1
10001f18:	ac700010 	sw	s0,16(v1)
10001f1c:	8fb00010 	lw	s0,16(sp)
10001f20:	00402025 	move	a0,v0
10001f24:	0800007b 	j	100001ec <_interrupt_set>
10001f28:	27bd0018 	addiu	sp,sp,24

10001f2c <kitoa.part.0>:
10001f2c:	24020010 	li	v0,16
10001f30:	10a20024 	beq	a1,v0,10001fc4 <kitoa.part.0+0x98>
10001f34:	00000000 	nop
10001f38:	04800034 	bltz	a0,1000200c <kitoa.part.0+0xe0>
10001f3c:	00000000 	nop
10001f40:	1080003a 	beqz	a0,1000202c <kitoa.part.0+0x100>
10001f44:	00004025 	move	t0,zero
10001f48:	3c071000 	lui	a3,0x1000
10001f4c:	3c061001 	lui	a2,0x1001
10001f50:	24c65676 	addiu	a2,a2,22134
10001f54:	2403001e 	li	v1,30
10001f58:	080007da 	j	10001f68 <kitoa.part.0+0x3c>
10001f5c:	24e74db8 	addiu	a3,a3,19896
10001f60:	1060000a 	beqz	v1,10001f8c <kitoa.part.0+0x60>
10001f64:	00000000 	nop
10001f68:	0085001a 	div	zero,a0,a1
10001f6c:	24c6ffff 	addiu	a2,a2,-1
10001f70:	2463ffff 	addiu	v1,v1,-1
10001f74:	00001010 	mfhi	v0
10001f78:	00e21021 	addu	v0,a3,v0
10001f7c:	90420000 	lbu	v0,0(v0)
10001f80:	00002012 	mflo	a0
10001f84:	1480fff6 	bnez	a0,10001f60 <kitoa.part.0+0x34>
10001f88:	a0c20001 	sb	v0,1(a2)
10001f8c:	15000006 	bnez	t0,10001fa8 <kitoa.part.0+0x7c>
10001f90:	00000000 	nop
10001f94:	3c021001 	lui	v0,0x1001
10001f98:	24630001 	addiu	v1,v1,1
10001f9c:	24425658 	addiu	v0,v0,22104
10001fa0:	03e00008 	jr	ra
10001fa4:	00431021 	addu	v0,v0,v1
10001fa8:	3c021001 	lui	v0,0x1001
10001fac:	24425658 	addiu	v0,v0,22104
10001fb0:	00432021 	addu	a0,v0,v1
10001fb4:	2405002d 	li	a1,45
10001fb8:	a0850000 	sb	a1,0(a0)
10001fbc:	03e00008 	jr	ra
10001fc0:	00431021 	addu	v0,v0,v1
10001fc4:	10800019 	beqz	a0,1000202c <kitoa.part.0+0x100>
10001fc8:	3c071000 	lui	a3,0x1000
10001fcc:	3c051001 	lui	a1,0x1001
10001fd0:	24a55676 	addiu	a1,a1,22134
10001fd4:	2403001e 	li	v1,30
10001fd8:	080007fa 	j	10001fe8 <kitoa.part.0+0xbc>
10001fdc:	24e74db8 	addiu	a3,a3,19896
10001fe0:	1060000d 	beqz	v1,10002018 <kitoa.part.0+0xec>
10001fe4:	24a5ffff 	addiu	a1,a1,-1
10001fe8:	3082000f 	andi	v0,a0,0xf
10001fec:	00e21021 	addu	v0,a3,v0
10001ff0:	90420000 	lbu	v0,0(v0)
10001ff4:	00042102 	srl	a0,a0,0x4
10001ff8:	a0a20000 	sb	v0,0(a1)
10001ffc:	1480fff8 	bnez	a0,10001fe0 <kitoa.part.0+0xb4>
10002000:	2463ffff 	addiu	v1,v1,-1
10002004:	080007e6 	j	10001f98 <kitoa.part.0+0x6c>
10002008:	3c021001 	lui	v0,0x1001
1000200c:	00042023 	negu	a0,a0
10002010:	080007d2 	j	10001f48 <kitoa.part.0+0x1c>
10002014:	24080001 	li	t0,1
10002018:	3c021001 	lui	v0,0x1001
1000201c:	24030001 	li	v1,1
10002020:	24425658 	addiu	v0,v0,22104
10002024:	03e00008 	jr	ra
10002028:	00431021 	addu	v0,v0,v1
1000202c:	3c021001 	lui	v0,0x1001
10002030:	2403001f 	li	v1,31
10002034:	080007e8 	j	10001fa0 <kitoa.part.0+0x74>
10002038:	24425658 	addiu	v0,v0,22104

1000203c <kprintf>:
1000203c:	27bdffc0 	addiu	sp,sp,-64
10002040:	afb70038 	sw	s7,56(sp)
10002044:	27b70044 	addiu	s7,sp,68
10002048:	afb60034 	sw	s6,52(sp)
1000204c:	afb50030 	sw	s5,48(sp)
10002050:	afb4002c 	sw	s4,44(sp)
10002054:	afb30028 	sw	s3,40(sp)
10002058:	afb20024 	sw	s2,36(sp)
1000205c:	afb0001c 	sw	s0,28(sp)
10002060:	afbf003c 	sw	ra,60(sp)
10002064:	afb10020 	sw	s1,32(sp)
10002068:	afa50044 	sw	a1,68(sp)
1000206c:	afa60048 	sw	a2,72(sp)
10002070:	afa7004c 	sw	a3,76(sp)
10002074:	00808025 	move	s0,a0
10002078:	afb70010 	sw	s7,16(sp)
1000207c:	24120025 	li	s2,37
10002080:	24130064 	li	s3,100
10002084:	3c151000 	lui	s5,0x1000
10002088:	24140073 	li	s4,115
1000208c:	3c161000 	lui	s6,0x1000
10002090:	82040000 	lb	a0,0(s0)
10002094:	00000000 	nop
10002098:	10800009 	beqz	a0,100020c0 <kprintf+0x84>
1000209c:	00000000 	nop
100020a0:	10920013 	beq	a0,s2,100020f0 <kprintf+0xb4>
100020a4:	00000000 	nop
100020a8:	0c000676 	jal	100019d8 <putchar>
100020ac:	26100001 	addiu	s0,s0,1
100020b0:	82040000 	lb	a0,0(s0)
100020b4:	00000000 	nop
100020b8:	1480fff9 	bnez	a0,100020a0 <kprintf+0x64>
100020bc:	00000000 	nop
100020c0:	8fbf003c 	lw	ra,60(sp)
100020c4:	8fb70038 	lw	s7,56(sp)
100020c8:	8fb60034 	lw	s6,52(sp)
100020cc:	8fb50030 	lw	s5,48(sp)
100020d0:	8fb4002c 	lw	s4,44(sp)
100020d4:	8fb30028 	lw	s3,40(sp)
100020d8:	8fb20024 	lw	s2,36(sp)
100020dc:	8fb10020 	lw	s1,32(sp)
100020e0:	8fb0001c 	lw	s0,28(sp)
100020e4:	00001025 	move	v0,zero
100020e8:	03e00008 	jr	ra
100020ec:	27bd0040 	addiu	sp,sp,64
100020f0:	82020001 	lb	v0,1(s0)
100020f4:	00000000 	nop
100020f8:	10530021 	beq	v0,s3,10002180 <kprintf+0x144>
100020fc:	28430065 	slti	v1,v0,101
10002100:	1060000a 	beqz	v1,1000212c <kprintf+0xf0>
10002104:	00000000 	nop
10002108:	10520042 	beq	v0,s2,10002214 <kprintf+0x1d8>
1000210c:	24030063 	li	v1,99
10002110:	1443003c 	bne	v0,v1,10002204 <kprintf+0x1c8>
10002114:	00000000 	nop
10002118:	82e40003 	lb	a0,3(s7)
1000211c:	0c000676 	jal	100019d8 <putchar>
10002120:	26f70004 	addiu	s7,s7,4
10002124:	08000824 	j	10002090 <kprintf+0x54>
10002128:	26100002 	addiu	s0,s0,2
1000212c:	10540025 	beq	v0,s4,100021c4 <kprintf+0x188>
10002130:	24030078 	li	v1,120
10002134:	14430033 	bne	v0,v1,10002204 <kprintf+0x1c8>
10002138:	00000000 	nop
1000213c:	8ee40000 	lw	a0,0(s7)
10002140:	00000000 	nop
10002144:	14800037 	bnez	a0,10002224 <kprintf+0x1e8>
10002148:	26f70004 	addiu	s7,s7,4
1000214c:	26a24dcc 	addiu	v0,s5,19916
10002150:	80440000 	lb	a0,0(v0)
10002154:	00000000 	nop
10002158:	1080fff2 	beqz	a0,10002124 <kprintf+0xe8>
1000215c:	24510001 	addiu	s1,v0,1
10002160:	0c000676 	jal	100019d8 <putchar>
10002164:	26310001 	addiu	s1,s1,1
10002168:	8224ffff 	lb	a0,-1(s1)
1000216c:	00000000 	nop
10002170:	1480fffb 	bnez	a0,10002160 <kprintf+0x124>
10002174:	00000000 	nop
10002178:	08000824 	j	10002090 <kprintf+0x54>
1000217c:	26100002 	addiu	s0,s0,2
10002180:	8ee40000 	lw	a0,0(s7)
10002184:	00000000 	nop
10002188:	1480002a 	bnez	a0,10002234 <kprintf+0x1f8>
1000218c:	26f70004 	addiu	s7,s7,4
10002190:	26a24dcc 	addiu	v0,s5,19916
10002194:	80440000 	lb	a0,0(v0)
10002198:	00000000 	nop
1000219c:	1080ffe1 	beqz	a0,10002124 <kprintf+0xe8>
100021a0:	24510001 	addiu	s1,v0,1
100021a4:	0c000676 	jal	100019d8 <putchar>
100021a8:	26310001 	addiu	s1,s1,1
100021ac:	8224ffff 	lb	a0,-1(s1)
100021b0:	00000000 	nop
100021b4:	1480fffb 	bnez	a0,100021a4 <kprintf+0x168>
100021b8:	00000000 	nop
100021bc:	08000824 	j	10002090 <kprintf+0x54>
100021c0:	26100002 	addiu	s0,s0,2
100021c4:	8ef10000 	lw	s1,0(s7)
100021c8:	00000000 	nop
100021cc:	1220001d 	beqz	s1,10002244 <kprintf+0x208>
100021d0:	26f70004 	addiu	s7,s7,4
100021d4:	82240000 	lb	a0,0(s1)
100021d8:	00000000 	nop
100021dc:	1080ffd1 	beqz	a0,10002124 <kprintf+0xe8>
100021e0:	00000000 	nop
100021e4:	0c000676 	jal	100019d8 <putchar>
100021e8:	26310001 	addiu	s1,s1,1
100021ec:	82240000 	lb	a0,0(s1)
100021f0:	00000000 	nop
100021f4:	1480fffb 	bnez	a0,100021e4 <kprintf+0x1a8>
100021f8:	00000000 	nop
100021fc:	08000824 	j	10002090 <kprintf+0x54>
10002200:	26100002 	addiu	s0,s0,2
10002204:	0c000676 	jal	100019d8 <putchar>
10002208:	2404003f 	li	a0,63
1000220c:	08000824 	j	10002090 <kprintf+0x54>
10002210:	26100002 	addiu	s0,s0,2
10002214:	0c000676 	jal	100019d8 <putchar>
10002218:	24040025 	li	a0,37
1000221c:	08000824 	j	10002090 <kprintf+0x54>
10002220:	26100002 	addiu	s0,s0,2
10002224:	0c0007cb 	jal	10001f2c <kitoa.part.0>
10002228:	24050010 	li	a1,16
1000222c:	08000854 	j	10002150 <kprintf+0x114>
10002230:	00000000 	nop
10002234:	0c0007cb 	jal	10001f2c <kitoa.part.0>
10002238:	2405000a 	li	a1,10
1000223c:	08000865 	j	10002194 <kprintf+0x158>
10002240:	00000000 	nop
10002244:	08000875 	j	100021d4 <kprintf+0x198>
10002248:	26d14dd0 	addiu	s1,s6,19920

1000224c <printchar.part.0>:
1000224c:	14800003 	bnez	a0,1000225c <printchar.part.0+0x10>
10002250:	00000000 	nop
10002254:	03e00008 	jr	ra
10002258:	00000000 	nop
1000225c:	08000676 	j	100019d8 <putchar>
10002260:	00000000 	nop

10002264 <__udivmoddi4.part.1>:
10002264:	27bdfff8 	addiu	sp,sp,-8
10002268:	00004025 	move	t0,zero
1000226c:	afb10004 	sw	s1,4(sp)
10002270:	afb00000 	sw	s0,0(sp)
10002274:	8fb80018 	lw	t8,24(sp)
10002278:	04c0000d 	bltz	a2,100022b0 <__udivmoddi4.part.1+0x4c>
1000227c:	24020001 	li	v0,1
10002280:	00074fc2 	srl	t1,a3,0x1f
10002284:	00063040 	sll	a2,a2,0x1
10002288:	00021fc2 	srl	v1,v0,0x1f
1000228c:	00084040 	sll	t0,t0,0x1
10002290:	01263025 	or	a2,t1,a2
10002294:	00073840 	sll	a3,a3,0x1
10002298:	00684025 	or	t0,v1,t0
1000229c:	04c1fff8 	bgez	a2,10002280 <__udivmoddi4.part.1+0x1c>
100022a0:	00021040 	sll	v0,v0,0x1
100022a4:	01021825 	or	v1,t0,v0
100022a8:	10600026 	beqz	v1,10002344 <__udivmoddi4.part.1+0xe0>
100022ac:	00007825 	move	t7,zero
100022b0:	00007825 	move	t7,zero
100022b4:	00001825 	move	v1,zero
100022b8:	0086482b 	sltu	t1,a0,a2
100022bc:	00086fc0 	sll	t5,t0,0x1f
100022c0:	00026042 	srl	t4,v0,0x1
100022c4:	00065fc0 	sll	t3,a2,0x1f
100022c8:	1520000f 	bnez	t1,10002308 <__udivmoddi4.part.1+0xa4>
100022cc:	00075042 	srl	t2,a3,0x1
100022d0:	00a77023 	subu	t6,a1,a3
100022d4:	00624821 	addu	t1,v1,v0
100022d8:	00ae802b 	sltu	s0,a1,t6
100022dc:	00868823 	subu	s1,a0,a2
100022e0:	0123c82b 	sltu	t9,t1,v1
100022e4:	01e81021 	addu	v0,t7,t0
100022e8:	14c40003 	bne	a2,a0,100022f8 <__udivmoddi4.part.1+0x94>
100022ec:	00a7382b 	sltu	a3,a1,a3
100022f0:	14e00005 	bnez	a3,10002308 <__udivmoddi4.part.1+0xa4>
100022f4:	00000000 	nop
100022f8:	02302023 	subu	a0,s1,s0
100022fc:	01c02825 	move	a1,t6
10002300:	03227821 	addu	t7,t9,v0
10002304:	01201825 	move	v1,t1
10002308:	00084042 	srl	t0,t0,0x1
1000230c:	01ac1025 	or	v0,t5,t4
10002310:	01024825 	or	t1,t0,v0
10002314:	00063042 	srl	a2,a2,0x1
10002318:	1520ffe7 	bnez	t1,100022b8 <__udivmoddi4.part.1+0x54>
1000231c:	016a3825 	or	a3,t3,t2
10002320:	13000003 	beqz	t8,10002330 <__udivmoddi4.part.1+0xcc>
10002324:	00000000 	nop
10002328:	af040000 	sw	a0,0(t8)
1000232c:	af050004 	sw	a1,4(t8)
10002330:	8fb10004 	lw	s1,4(sp)
10002334:	8fb00000 	lw	s0,0(sp)
10002338:	01e01025 	move	v0,t7
1000233c:	03e00008 	jr	ra
10002340:	27bd0008 	addiu	sp,sp,8
10002344:	080008c8 	j	10002320 <__udivmoddi4.part.1+0xbc>
10002348:	00001825 	move	v1,zero

1000234c <vsprintf>:
1000234c:	27bdffb0 	addiu	sp,sp,-80
10002350:	afb00028 	sw	s0,40(sp)
10002354:	afbf004c 	sw	ra,76(sp)
10002358:	afbe0048 	sw	s8,72(sp)
1000235c:	afb70044 	sw	s7,68(sp)
10002360:	afb60040 	sw	s6,64(sp)
10002364:	afb5003c 	sw	s5,60(sp)
10002368:	afb40038 	sw	s4,56(sp)
1000236c:	afb30034 	sw	s3,52(sp)
10002370:	afb20030 	sw	s2,48(sp)
10002374:	afb1002c 	sw	s1,44(sp)
10002378:	80a20000 	lb	v0,0(a1)
1000237c:	00000000 	nop
10002380:	1040006e 	beqz	v0,1000253c <vsprintf+0x1f0>
10002384:	00808025 	move	s0,a0
10002388:	3c131000 	lui	s3,0x1000
1000238c:	3c171000 	lui	s7,0x1000
10002390:	00c0f025 	move	s8,a2
10002394:	26734e3c 	addiu	s3,s3,20028
10002398:	080008f5 	j	100023d4 <vsprintf+0x88>
1000239c:	26f74db8 	addiu	s7,s7,19896
100023a0:	120000d5 	beqz	s0,100026f8 <vsprintf+0x3ac>
100023a4:	00402025 	move	a0,v0
100023a8:	8e030000 	lw	v1,0(s0)
100023ac:	00a0b025 	move	s6,a1
100023b0:	a0620000 	sb	v0,0(v1)
100023b4:	8e020000 	lw	v0,0(s0)
100023b8:	00000000 	nop
100023bc:	24420001 	addiu	v0,v0,1
100023c0:	ae020000 	sw	v0,0(s0)
100023c4:	82c20001 	lb	v0,1(s6)
100023c8:	00000000 	nop
100023cc:	1040005b 	beqz	v0,1000253c <vsprintf+0x1f0>
100023d0:	26c50001 	addiu	a1,s6,1
100023d4:	24030025 	li	v1,37
100023d8:	1443fff1 	bne	v0,v1,100023a0 <vsprintf+0x54>
100023dc:	00000000 	nop
100023e0:	80a30001 	lb	v1,1(a1)
100023e4:	24020030 	li	v0,48
100023e8:	10620071 	beq	v1,v0,100025b0 <vsprintf+0x264>
100023ec:	2462ffd0 	addiu	v0,v1,-48
100023f0:	304200ff 	andi	v0,v0,0xff
100023f4:	2c42000a 	sltiu	v0,v0,10
100023f8:	1440003c 	bnez	v0,100024ec <vsprintf+0x1a0>
100023fc:	24b60001 	addiu	s6,a1,1
10002400:	00601025 	move	v0,v1
10002404:	24140020 	li	s4,32
10002408:	2411ffff 	li	s1,-1
1000240c:	2404006c 	li	a0,108
10002410:	10640047 	beq	v1,a0,10002530 <vsprintf+0x1e4>
10002414:	00000000 	nop
10002418:	2442ffa8 	addiu	v0,v0,-88
1000241c:	304200ff 	andi	v0,v0,0xff
10002420:	2c430021 	sltiu	v1,v0,33
10002424:	1060ffe7 	beqz	v1,100023c4 <vsprintf+0x78>
10002428:	00021080 	sll	v0,v0,0x2
1000242c:	02621021 	addu	v0,s3,v0
10002430:	8c420000 	lw	v0,0(v0)
10002434:	00000000 	nop
10002438:	00400008 	jr	v0
1000243c:	00000000 	nop
10002440:	2404000a 	li	a0,10
10002444:	8fd50000 	lw	s5,0(s8)
10002448:	27d20004 	addiu	s2,s8,4
1000244c:	16a00061 	bnez	s5,100025d4 <vsprintf+0x288>
10002450:	24020030 	li	v0,48
10002454:	24030001 	li	v1,1
10002458:	0240f025 	move	s8,s2
1000245c:	a3a20010 	sb	v0,16(sp)
10002460:	27b20010 	addiu	s2,sp,16
10002464:	02238823 	subu	s1,s1,v1
10002468:	1a20000c 	blez	s1,1000249c <vsprintf+0x150>
1000246c:	00000000 	nop
10002470:	12000048 	beqz	s0,10002594 <vsprintf+0x248>
10002474:	00000000 	nop
10002478:	8e020000 	lw	v0,0(s0)
1000247c:	2631ffff 	addiu	s1,s1,-1
10002480:	a0540000 	sb	s4,0(v0)
10002484:	8e020000 	lw	v0,0(s0)
10002488:	00000000 	nop
1000248c:	24420001 	addiu	v0,v0,1
10002490:	ae020000 	sw	v0,0(s0)
10002494:	1e20fff6 	bgtz	s1,10002470 <vsprintf+0x124>
10002498:	00000000 	nop
1000249c:	2471ffff 	addiu	s1,v1,-1
100024a0:	02518821 	addu	s1,s2,s1
100024a4:	27b2000f 	addiu	s2,sp,15
100024a8:	1232ffc6 	beq	s1,s2,100023c4 <vsprintf+0x78>
100024ac:	00000000 	nop
100024b0:	82240000 	lb	a0,0(s1)
100024b4:	12000009 	beqz	s0,100024dc <vsprintf+0x190>
100024b8:	00000000 	nop
100024bc:	8e020000 	lw	v0,0(s0)
100024c0:	2631ffff 	addiu	s1,s1,-1
100024c4:	a0440000 	sb	a0,0(v0)
100024c8:	8e020000 	lw	v0,0(s0)
100024cc:	00000000 	nop
100024d0:	24420001 	addiu	v0,v0,1
100024d4:	0800092a 	j	100024a8 <vsprintf+0x15c>
100024d8:	ae020000 	sw	v0,0(s0)
100024dc:	0c000893 	jal	1000224c <printchar.part.0>
100024e0:	2631ffff 	addiu	s1,s1,-1
100024e4:	0800092a 	j	100024a8 <vsprintf+0x15c>
100024e8:	00000000 	nop
100024ec:	24140020 	li	s4,32
100024f0:	00008825 	move	s1,zero
100024f4:	00111040 	sll	v0,s1,0x1
100024f8:	001188c0 	sll	s1,s1,0x3
100024fc:	00518821 	addu	s1,v0,s1
10002500:	26d60001 	addiu	s6,s6,1
10002504:	02238821 	addu	s1,s1,v1
10002508:	82c30000 	lb	v1,0(s6)
1000250c:	00000000 	nop
10002510:	2462ffd0 	addiu	v0,v1,-48
10002514:	304200ff 	andi	v0,v0,0xff
10002518:	2c42000a 	sltiu	v0,v0,10
1000251c:	1440fff5 	bnez	v0,100024f4 <vsprintf+0x1a8>
10002520:	2631ffd0 	addiu	s1,s1,-48
10002524:	2404006c 	li	a0,108
10002528:	1464ffbb 	bne	v1,a0,10002418 <vsprintf+0xcc>
1000252c:	00601025 	move	v0,v1
10002530:	82c20001 	lb	v0,1(s6)
10002534:	08000906 	j	10002418 <vsprintf+0xcc>
10002538:	26d60001 	addiu	s6,s6,1
1000253c:	12000008 	beqz	s0,10002560 <vsprintf+0x214>
10002540:	00000000 	nop
10002544:	8e020000 	lw	v0,0(s0)
10002548:	00000000 	nop
1000254c:	a0400000 	sb	zero,0(v0)
10002550:	8e020000 	lw	v0,0(s0)
10002554:	00000000 	nop
10002558:	24420001 	addiu	v0,v0,1
1000255c:	ae020000 	sw	v0,0(s0)
10002560:	8fbf004c 	lw	ra,76(sp)
10002564:	8fbe0048 	lw	s8,72(sp)
10002568:	8fb70044 	lw	s7,68(sp)
1000256c:	8fb60040 	lw	s6,64(sp)
10002570:	8fb5003c 	lw	s5,60(sp)
10002574:	8fb40038 	lw	s4,56(sp)
10002578:	8fb30034 	lw	s3,52(sp)
1000257c:	8fb20030 	lw	s2,48(sp)
10002580:	8fb1002c 	lw	s1,44(sp)
10002584:	8fb00028 	lw	s0,40(sp)
10002588:	00001025 	move	v0,zero
1000258c:	03e00008 	jr	ra
10002590:	27bd0050 	addiu	sp,sp,80
10002594:	02802025 	move	a0,s4
10002598:	afa30020 	sw	v1,32(sp)
1000259c:	0c000893 	jal	1000224c <printchar.part.0>
100025a0:	2631ffff 	addiu	s1,s1,-1
100025a4:	8fa30020 	lw	v1,32(sp)
100025a8:	08000925 	j	10002494 <vsprintf+0x148>
100025ac:	00000000 	nop
100025b0:	80a30002 	lb	v1,2(a1)
100025b4:	00000000 	nop
100025b8:	2462ffd0 	addiu	v0,v1,-48
100025bc:	304200ff 	andi	v0,v0,0xff
100025c0:	2c42000a 	sltiu	v0,v0,10
100025c4:	10400048 	beqz	v0,100026e8 <vsprintf+0x39c>
100025c8:	24b60002 	addiu	s6,a1,2
100025cc:	0800093c 	j	100024f0 <vsprintf+0x1a4>
100025d0:	24140030 	li	s4,48
100025d4:	0240f025 	move	s8,s2
100025d8:	00001825 	move	v1,zero
100025dc:	27b20010 	addiu	s2,sp,16
100025e0:	02a4001b 	divu	zero,s5,a0
100025e4:	24630001 	addiu	v1,v1,1
100025e8:	02433021 	addu	a2,s2,v1
100025ec:	00001010 	mfhi	v0
100025f0:	02e21021 	addu	v0,s7,v0
100025f4:	90420000 	lbu	v0,0(v0)
100025f8:	0000a812 	mflo	s5
100025fc:	16a0fff8 	bnez	s5,100025e0 <vsprintf+0x294>
10002600:	a0c2ffff 	sb	v0,-1(a2)
10002604:	0800091a 	j	10002468 <vsprintf+0x11c>
10002608:	02238823 	subu	s1,s1,v1
1000260c:	8fd20000 	lw	s2,0(s8)
10002610:	00000000 	nop
10002614:	12400054 	beqz	s2,10002768 <vsprintf+0x41c>
10002618:	27de0004 	addiu	s8,s8,4
1000261c:	82440000 	lb	a0,0(s2)
10002620:	00000000 	nop
10002624:	10800011 	beqz	a0,1000266c <vsprintf+0x320>
10002628:	00000000 	nop
1000262c:	1220003f 	beqz	s1,1000272c <vsprintf+0x3e0>
10002630:	00000000 	nop
10002634:	12000035 	beqz	s0,1000270c <vsprintf+0x3c0>
10002638:	00000000 	nop
1000263c:	8e020000 	lw	v0,0(s0)
10002640:	00000000 	nop
10002644:	a0440000 	sb	a0,0(v0)
10002648:	8e020000 	lw	v0,0(s0)
1000264c:	00000000 	nop
10002650:	24420001 	addiu	v0,v0,1
10002654:	ae020000 	sw	v0,0(s0)
10002658:	26520001 	addiu	s2,s2,1
1000265c:	82440000 	lb	a0,0(s2)
10002660:	00000000 	nop
10002664:	1480fff1 	bnez	a0,1000262c <vsprintf+0x2e0>
10002668:	2631ffff 	addiu	s1,s1,-1
1000266c:	1a20ff55 	blez	s1,100023c4 <vsprintf+0x78>
10002670:	00000000 	nop
10002674:	12000029 	beqz	s0,1000271c <vsprintf+0x3d0>
10002678:	00000000 	nop
1000267c:	8e020000 	lw	v0,0(s0)
10002680:	2631ffff 	addiu	s1,s1,-1
10002684:	a0540000 	sb	s4,0(v0)
10002688:	8e020000 	lw	v0,0(s0)
1000268c:	00000000 	nop
10002690:	24420001 	addiu	v0,v0,1
10002694:	0800099b 	j	1000266c <vsprintf+0x320>
10002698:	ae020000 	sw	v0,0(s0)
1000269c:	08000911 	j	10002444 <vsprintf+0xf8>
100026a0:	24040010 	li	a0,16
100026a4:	8fd50000 	lw	s5,0(s8)
100026a8:	00000000 	nop
100026ac:	06a00021 	bltz	s5,10002734 <vsprintf+0x3e8>
100026b0:	27d20004 	addiu	s2,s8,4
100026b4:	08000913 	j	1000244c <vsprintf+0x100>
100026b8:	2404000a 	li	a0,10
100026bc:	83c40003 	lb	a0,3(s8)
100026c0:	1200002c 	beqz	s0,10002774 <vsprintf+0x428>
100026c4:	27d10004 	addiu	s1,s8,4
100026c8:	8e020000 	lw	v0,0(s0)
100026cc:	0220f025 	move	s8,s1
100026d0:	a0440000 	sb	a0,0(v0)
100026d4:	8e020000 	lw	v0,0(s0)
100026d8:	00000000 	nop
100026dc:	24420001 	addiu	v0,v0,1
100026e0:	080008f1 	j	100023c4 <vsprintf+0x78>
100026e4:	ae020000 	sw	v0,0(s0)
100026e8:	00601025 	move	v0,v1
100026ec:	24140030 	li	s4,48
100026f0:	08000903 	j	1000240c <vsprintf+0xc0>
100026f4:	2411ffff 	li	s1,-1
100026f8:	0c000893 	jal	1000224c <printchar.part.0>
100026fc:	afa50020 	sw	a1,32(sp)
10002700:	8fa50020 	lw	a1,32(sp)
10002704:	080008f1 	j	100023c4 <vsprintf+0x78>
10002708:	00a0b025 	move	s6,a1
1000270c:	0c000893 	jal	1000224c <printchar.part.0>
10002710:	26520001 	addiu	s2,s2,1
10002714:	08000997 	j	1000265c <vsprintf+0x310>
10002718:	00000000 	nop
1000271c:	0c000893 	jal	1000224c <printchar.part.0>
10002720:	02802025 	move	a0,s4
10002724:	0800099b 	j	1000266c <vsprintf+0x320>
10002728:	2631ffff 	addiu	s1,s1,-1
1000272c:	0800099b 	j	1000266c <vsprintf+0x320>
10002730:	00008825 	move	s1,zero
10002734:	12000013 	beqz	s0,10002784 <vsprintf+0x438>
10002738:	0015a823 	negu	s5,s5
1000273c:	8e020000 	lw	v0,0(s0)
10002740:	2403002d 	li	v1,45
10002744:	a0430000 	sb	v1,0(v0)
10002748:	8e020000 	lw	v0,0(s0)
1000274c:	00000000 	nop
10002750:	24420001 	addiu	v0,v0,1
10002754:	ae020000 	sw	v0,0(s0)
10002758:	2631ffff 	addiu	s1,s1,-1
1000275c:	0240f025 	move	s8,s2
10002760:	08000976 	j	100025d8 <vsprintf+0x28c>
10002764:	2404000a 	li	a0,10
10002768:	3c021000 	lui	v0,0x1000
1000276c:	08000987 	j	1000261c <vsprintf+0x2d0>
10002770:	24524dd8 	addiu	s2,v0,19928
10002774:	0c000893 	jal	1000224c <printchar.part.0>
10002778:	0220f025 	move	s8,s1
1000277c:	080008f1 	j	100023c4 <vsprintf+0x78>
10002780:	00000000 	nop
10002784:	0c000676 	jal	100019d8 <putchar>
10002788:	2404002d 	li	a0,45
1000278c:	080009d7 	j	1000275c <vsprintf+0x410>
10002790:	2631ffff 	addiu	s1,s1,-1

10002794 <strncpy>:
10002794:	18c00010 	blez	a2,100027d8 <strncpy+0x44>
10002798:	00801025 	move	v0,a0
1000279c:	80a40000 	lb	a0,0(a1)
100027a0:	24430001 	addiu	v1,v0,1
100027a4:	a0440000 	sb	a0,0(v0)
100027a8:	14800007 	bnez	a0,100027c8 <strncpy+0x34>
100027ac:	00003825 	move	a3,zero
100027b0:	08000a02 	j	10002808 <strncpy+0x74>
100027b4:	24070001 	li	a3,1
100027b8:	81080000 	lb	t0,0(t0)
100027bc:	00000000 	nop
100027c0:	11000007 	beqz	t0,100027e0 <strncpy+0x4c>
100027c4:	a068ffff 	sb	t0,-1(v1)
100027c8:	24e70001 	addiu	a3,a3,1
100027cc:	00a74021 	addu	t0,a1,a3
100027d0:	14e6fff9 	bne	a3,a2,100027b8 <strncpy+0x24>
100027d4:	24630001 	addiu	v1,v1,1
100027d8:	03e00008 	jr	ra
100027dc:	00000000 	nop
100027e0:	24e70001 	addiu	a3,a3,1
100027e4:	00e6202a 	slt	a0,a3,a2
100027e8:	1080fffb 	beqz	a0,100027d8 <strncpy+0x44>
100027ec:	00c73823 	subu	a3,a2,a3
100027f0:	00673821 	addu	a3,v1,a3
100027f4:	24630001 	addiu	v1,v1,1
100027f8:	1467fffe 	bne	v1,a3,100027f4 <strncpy+0x60>
100027fc:	a060ffff 	sb	zero,-1(v1)
10002800:	03e00008 	jr	ra
10002804:	00000000 	nop
10002808:	080009fa 	j	100027e8 <strncpy+0x54>
1000280c:	00e6202a 	slt	a0,a3,a2

10002810 <memcpy>:
10002810:	10c00008 	beqz	a2,10002834 <memcpy+0x24>
10002814:	00801025 	move	v0,a0
10002818:	00863021 	addu	a2,a0,a2
1000281c:	00801825 	move	v1,a0
10002820:	24a50001 	addiu	a1,a1,1
10002824:	80a7ffff 	lb	a3,-1(a1)
10002828:	24630001 	addiu	v1,v1,1
1000282c:	1466fffc 	bne	v1,a2,10002820 <memcpy+0x10>
10002830:	a067ffff 	sb	a3,-1(v1)
10002834:	03e00008 	jr	ra
10002838:	00000000 	nop

1000283c <memset>:
1000283c:	10c00007 	beqz	a2,1000285c <memset+0x20>
10002840:	00801025 	move	v0,a0
10002844:	30a500ff 	andi	a1,a1,0xff
10002848:	00863021 	addu	a2,a0,a2
1000284c:	00801825 	move	v1,a0
10002850:	24630001 	addiu	v1,v1,1
10002854:	1466fffe 	bne	v1,a2,10002850 <memset+0x14>
10002858:	a065ffff 	sb	a1,-1(v1)
1000285c:	03e00008 	jr	ra
10002860:	00000000 	nop

10002864 <printf>:
10002864:	27bdffe0 	addiu	sp,sp,-32
10002868:	27a20024 	addiu	v0,sp,36
1000286c:	00801825 	move	v1,a0
10002870:	00002025 	move	a0,zero
10002874:	afa50024 	sw	a1,36(sp)
10002878:	afa60028 	sw	a2,40(sp)
1000287c:	00602825 	move	a1,v1
10002880:	00403025 	move	a2,v0
10002884:	afbf001c 	sw	ra,28(sp)
10002888:	afa7002c 	sw	a3,44(sp)
1000288c:	0c0008d3 	jal	1000234c <vsprintf>
10002890:	afa20010 	sw	v0,16(sp)
10002894:	8fbf001c 	lw	ra,28(sp)
10002898:	00000000 	nop
1000289c:	03e00008 	jr	ra
100028a0:	27bd0020 	addiu	sp,sp,32

100028a4 <malloc>:
100028a4:	08000afd 	j	10002bf4 <hf_malloc>
100028a8:	00000000 	nop

100028ac <free>:
100028ac:	08000ae2 	j	10002b88 <hf_free>
100028b0:	00000000 	nop

100028b4 <__udivdi3>:
100028b4:	00c71025 	or	v0,a2,a3
100028b8:	14400003 	bnez	v0,100028c8 <__udivdi3+0x14>
100028bc:	24030001 	li	v1,1
100028c0:	03e00008 	jr	ra
100028c4:	00001025 	move	v0,zero
100028c8:	27bdffe0 	addiu	sp,sp,-32
100028cc:	afa00010 	sw	zero,16(sp)
100028d0:	afbf001c 	sw	ra,28(sp)
100028d4:	0c000899 	jal	10002264 <__udivmoddi4.part.1>
100028d8:	00000000 	nop
100028dc:	8fbf001c 	lw	ra,28(sp)
100028e0:	00000000 	nop
100028e4:	03e00008 	jr	ra
100028e8:	27bd0020 	addiu	sp,sp,32

100028ec <main>:
100028ec:	27bdffd0 	addiu	sp,sp,-48
100028f0:	afbf002c 	sw	ra,44(sp)
100028f4:	afb30028 	sw	s3,40(sp)
100028f8:	afb20024 	sw	s2,36(sp)
100028fc:	afb10020 	sw	s1,32(sp)
10002900:	0c0006c5 	jal	10001b14 <_hardware_init>
10002904:	afb0001c 	sw	s0,28(sp)
10002908:	0c000f28 	jal	10003ca0 <hf_schedlock>
1000290c:	24040001 	li	a0,1
10002910:	0c00007b 	jal	100001ec <_interrupt_set>
10002914:	00002025 	move	a0,zero
10002918:	3c041000 	lui	a0,0x1000
1000291c:	0c00080f 	jal	1000203c <kprintf>
10002920:	24844ec0 	addiu	a0,a0,20160
10002924:	3c031001 	lui	v1,0x1001
10002928:	3c02baad 	lui	v0,0xbaad
1000292c:	8c6455a4 	lw	a0,21924(v1)
10002930:	3442d00d 	ori	v0,v0,0xd00d
10002934:	1082000b 	beq	a0,v0,10002964 <main+0x78>
10002938:	3c041000 	lui	a0,0x1000
1000293c:	0c000ebe 	jal	10003af8 <panic>
10002940:	24040001 	li	a0,1
10002944:	8fbf002c 	lw	ra,44(sp)
10002948:	8fb30028 	lw	s3,40(sp)
1000294c:	8fb20024 	lw	s2,36(sp)
10002950:	8fb10020 	lw	s1,32(sp)
10002954:	8fb0001c 	lw	s0,28(sp)
10002958:	00001025 	move	v0,zero
1000295c:	03e00008 	jr	ra
10002960:	27bd0030 	addiu	sp,sp,48
10002964:	24844ed4 	addiu	a0,a0,20180
10002968:	0c00080f 	jal	1000203c <kprintf>
1000296c:	ac6055a4 	sw	zero,21924(v1)
10002970:	3c021000 	lui	v0,0x1000
10002974:	24424f54 	addiu	v0,v0,20308
10002978:	3c061000 	lui	a2,0x1000
1000297c:	3c071000 	lui	a3,0x1000
10002980:	3c051000 	lui	a1,0x1000
10002984:	3c041000 	lui	a0,0x1000
10002988:	24c64f40 	addiu	a2,a2,20288
1000298c:	24e74f48 	addiu	a3,a3,20296
10002990:	24a54f34 	addiu	a1,a1,20276
10002994:	24844f14 	addiu	a0,a0,20244
10002998:	0c00080f 	jal	1000203c <kprintf>
1000299c:	afa20010 	sw	v0,16(sp)
100029a0:	3c041000 	lui	a0,0x1000
100029a4:	0c00080f 	jal	1000203c <kprintf>
100029a8:	24844f60 	addiu	a0,a0,20320
100029ac:	3c041000 	lui	a0,0x1000
100029b0:	0c00080f 	jal	1000203c <kprintf>
100029b4:	24844f98 	addiu	a0,a0,20376
100029b8:	3c041000 	lui	a0,0x1000
100029bc:	3c051000 	lui	a1,0x1000
100029c0:	24844fd8 	addiu	a0,a0,20440
100029c4:	0c00080f 	jal	1000203c <kprintf>
100029c8:	24a54fec 	addiu	a1,a1,20460
100029cc:	3c041000 	lui	a0,0x1000
100029d0:	24844ff8 	addiu	a0,a0,20472
100029d4:	0c00080f 	jal	1000203c <kprintf>
100029d8:	240561a8 	li	a1,25000
100029dc:	3c041000 	lui	a0,0x1000
100029e0:	24845010 	addiu	a0,a0,20496
100029e4:	0c00080f 	jal	1000203c <kprintf>
100029e8:	240528f0 	li	a1,10480
100029ec:	3c041000 	lui	a0,0x1000
100029f0:	3c050007 	lui	a1,0x7
100029f4:	24845028 	addiu	a0,a0,20520
100029f8:	0c00080f 	jal	1000203c <kprintf>
100029fc:	34a5a120 	ori	a1,a1,0xa120
10002a00:	3c041000 	lui	a0,0x1000
10002a04:	24845044 	addiu	a0,a0,20548
10002a08:	2405001e 	li	a1,30
10002a0c:	3c101001 	lui	s0,0x1001
10002a10:	0c00080f 	jal	1000203c <kprintf>
10002a14:	3c121001 	lui	s2,0x1001
10002a18:	0c0006d4 	jal	10001b50 <_vm_init>
10002a1c:	2610567c 	addiu	s0,s0,22140
10002a20:	2652684c 	addiu	s2,s2,26700
10002a24:	3c111009 	lui	s1,0x1009
10002a28:	2413ffff 	li	s3,-1
10002a2c:	26040002 	addiu	a0,s0,2
10002a30:	00002825 	move	a1,zero
10002a34:	24060014 	li	a2,20
10002a38:	ae301148 	sw	s0,4424(s1)
10002a3c:	0c000a0f 	jal	1000283c <memset>
10002a40:	a6130000 	sh	s3,0(s0)
10002a44:	8e221148 	lw	v0,4424(s1)
10002a48:	26100098 	addiu	s0,s0,152
10002a4c:	a0400016 	sb	zero,22(v0)
10002a50:	a0400017 	sb	zero,23(v0)
10002a54:	a0400018 	sb	zero,24(v0)
10002a58:	ac40001c 	sw	zero,28(v0)
10002a5c:	ac400020 	sw	zero,32(v0)
10002a60:	ac400024 	sw	zero,36(v0)
10002a64:	ac400028 	sw	zero,40(v0)
10002a68:	a440002c 	sh	zero,44(v0)
10002a6c:	a440002e 	sh	zero,46(v0)
10002a70:	a4400030 	sh	zero,48(v0)
10002a74:	a4400032 	sh	zero,50(v0)
10002a78:	a4400034 	sh	zero,52(v0)
10002a7c:	a4400036 	sh	zero,54(v0)
10002a80:	ac400088 	sw	zero,136(v0)
10002a84:	ac40008c 	sw	zero,140(v0)
10002a88:	ac400090 	sw	zero,144(v0)
10002a8c:	1612ffe7 	bne	s0,s2,10002a2c <main+0x140>
10002a90:	ac400094 	sw	zero,148(v0)
10002a94:	3c031009 	lui	v1,0x1009
10002a98:	a4601150 	sh	zero,4432(v1)
10002a9c:	3c031009 	lui	v1,0x1009
10002aa0:	a4601144 	sh	zero,4420(v1)
10002aa4:	3c031009 	lui	v1,0x1009
10002aa8:	a4601160 	sh	zero,4448(v1)
10002aac:	3c031000 	lui	v1,0x1000
10002ab0:	3c051009 	lui	a1,0x1009
10002ab4:	246344f4 	addiu	v1,v1,17652
10002ab8:	aca3096c 	sw	v1,2412(a1)
10002abc:	3c031000 	lui	v1,0x1000
10002ac0:	24a2096c 	addiu	v0,a1,2412
10002ac4:	24634390 	addiu	v1,v1,17296
10002ac8:	2404001e 	li	a0,30
10002acc:	ac430004 	sw	v1,4(v0)
10002ad0:	ac400008 	sw	zero,8(v0)
10002ad4:	ac40000c 	sw	zero,12(v0)
10002ad8:	ac400010 	sw	zero,16(v0)
10002adc:	0c000f30 	jal	10003cc0 <hf_queue_create>
10002ae0:	ac400014 	sw	zero,20(v0)
10002ae4:	3c031009 	lui	v1,0x1009
10002ae8:	10400023 	beqz	v0,10002b78 <main+0x28c>
10002aec:	ac621158 	sw	v0,4440(v1)
10002af0:	0c000f30 	jal	10003cc0 <hf_queue_create>
10002af4:	2404001e 	li	a0,30
10002af8:	3c031009 	lui	v1,0x1009
10002afc:	1040001a 	beqz	v0,10002b68 <main+0x27c>
10002b00:	ac621164 	sw	v0,4452(v1)
10002b04:	0c000f30 	jal	10003cc0 <hf_queue_create>
10002b08:	2404001e 	li	a0,30
10002b0c:	3c031009 	lui	v1,0x1009
10002b10:	10400011 	beqz	v0,10002b58 <main+0x26c>
10002b14:	ac62115c 	sw	v0,4444(v1)
10002b18:	0c0006e0 	jal	10001b80 <_sched_init>
10002b1c:	00000000 	nop
10002b20:	0c0006e3 	jal	10001b8c <_timer_init>
10002b24:	00000000 	nop
10002b28:	0c000778 	jal	10001de0 <_timer_reset>
10002b2c:	00000000 	nop
10002b30:	0c0006f8 	jal	10001be0 <_irq_init>
10002b34:	00000000 	nop
10002b38:	0c0006fb 	jal	10001bec <_device_init>
10002b3c:	00000000 	nop
10002b40:	0c000703 	jal	10001c0c <_task_init>
10002b44:	00000000 	nop
10002b48:	0c000ebe 	jal	10003af8 <panic>
10002b4c:	00002025 	move	a0,zero
10002b50:	08000a51 	j	10002944 <main+0x58>
10002b54:	00000000 	nop
10002b58:	0c000ebe 	jal	10003af8 <panic>
10002b5c:	24040004 	li	a0,4
10002b60:	08000ac6 	j	10002b18 <main+0x22c>
10002b64:	00000000 	nop
10002b68:	0c000ebe 	jal	10003af8 <panic>
10002b6c:	24040004 	li	a0,4
10002b70:	08000ac1 	j	10002b04 <main+0x218>
10002b74:	00000000 	nop
10002b78:	0c000ebe 	jal	10003af8 <panic>
10002b7c:	24040004 	li	a0,4
10002b80:	08000abc 	j	10002af0 <main+0x204>
10002b84:	00000000 	nop

10002b88 <hf_free>:
10002b88:	27bdffe0 	addiu	sp,sp,-32
10002b8c:	afb00014 	sw	s0,20(sp)
10002b90:	3c101001 	lui	s0,0x1001
10002b94:	afb10018 	sw	s1,24(sp)
10002b98:	00808825 	move	s1,a0
10002b9c:	afbf001c 	sw	ra,28(sp)
10002ba0:	0c000b68 	jal	10002da0 <hf_mtxlock>
10002ba4:	26045678 	addiu	a0,s0,22136
10002ba8:	8e23fffc 	lw	v1,-4(s1)
10002bac:	3c051009 	lui	a1,0x1009
10002bb0:	8ca21154 	lw	v0,4436(a1)
10002bb4:	2404fffe 	li	a0,-2
10002bb8:	00641824 	and	v1,v1,a0
10002bbc:	3c041009 	lui	a0,0x1009
10002bc0:	8c86116c 	lw	a2,4460(a0)
10002bc4:	8fbf001c 	lw	ra,28(sp)
10002bc8:	ae23fffc 	sw	v1,-4(s1)
10002bcc:	24420008 	addiu	v0,v0,8
10002bd0:	8fb10018 	lw	s1,24(sp)
10002bd4:	26045678 	addiu	a0,s0,22136
10002bd8:	8fb00014 	lw	s0,20(sp)
10002bdc:	00431021 	addu	v0,v0,v1
10002be0:	3c031009 	lui	v1,0x1009
10002be4:	27bd0020 	addiu	sp,sp,32
10002be8:	ac661168 	sw	a2,4456(v1)
10002bec:	08000b81 	j	10002e04 <hf_mtxunlock>
10002bf0:	aca21154 	sw	v0,4436(a1)

10002bf4 <hf_malloc>:
10002bf4:	27bdffe0 	addiu	sp,sp,-32
10002bf8:	afb20018 	sw	s2,24(sp)
10002bfc:	3c121001 	lui	s2,0x1001
10002c00:	24820003 	addiu	v0,a0,3
10002c04:	afb10014 	sw	s1,20(sp)
10002c08:	26445678 	addiu	a0,s2,22136
10002c0c:	2411fffc 	li	s1,-4
10002c10:	afb00010 	sw	s0,16(sp)
10002c14:	afbf001c 	sw	ra,28(sp)
10002c18:	0c000b68 	jal	10002da0 <hf_mtxlock>
10002c1c:	00518824 	and	s1,v0,s1
10002c20:	3c041009 	lui	a0,0x1009
10002c24:	8c851168 	lw	a1,4456(a0)
10002c28:	2408fff8 	li	t0,-8
10002c2c:	00a08025 	move	s0,a1
10002c30:	26270008 	addiu	a3,s1,8
10002c34:	8ca30000 	lw	v1,0(a1)
10002c38:	00000000 	nop
10002c3c:	10600037 	beqz	v1,10002d1c <hf_malloc+0x128>
10002c40:	00000000 	nop
10002c44:	8ca20004 	lw	v0,4(a1)
10002c48:	00000000 	nop
10002c4c:	30420001 	andi	v0,v0,0x1
10002c50:	14400005 	bnez	v0,10002c68 <hf_malloc+0x74>
10002c54:	00000000 	nop
10002c58:	08000b1f 	j	10002c7c <hf_malloc+0x88>
10002c5c:	00a01825 	move	v1,a1
10002c60:	8c630000 	lw	v1,0(v1)
10002c64:	00000000 	nop
10002c68:	8c620004 	lw	v0,4(v1)
10002c6c:	00000000 	nop
10002c70:	30420001 	andi	v0,v0,0x1
10002c74:	1440fffa 	bnez	v0,10002c60 <hf_malloc+0x6c>
10002c78:	00608025 	move	s0,v1
10002c7c:	1440000b 	bnez	v0,10002cac <hf_malloc+0xb8>
10002c80:	01101023 	subu	v0,t0,s0
10002c84:	8c650000 	lw	a1,0(v1)
10002c88:	00000000 	nop
10002c8c:	10a00007 	beqz	a1,10002cac <hf_malloc+0xb8>
10002c90:	01101023 	subu	v0,t0,s0
10002c94:	8ca20004 	lw	v0,4(a1)
10002c98:	00000000 	nop
10002c9c:	30420001 	andi	v0,v0,0x1
10002ca0:	1040fff8 	beqz	v0,10002c84 <hf_malloc+0x90>
10002ca4:	00a01825 	move	v1,a1
10002ca8:	01101023 	subu	v0,t0,s0
10002cac:	00621021 	addu	v0,v1,v0
10002cb0:	0047302b 	sltu	a2,v0,a3
10002cb4:	00602825 	move	a1,v1
10002cb8:	ae020004 	sw	v0,4(s0)
10002cbc:	14c0ffdd 	bnez	a2,10002c34 <hf_malloc+0x40>
10002cc0:	ae030000 	sw	v1,0(s0)
10002cc4:	3c051009 	lui	a1,0x1009
10002cc8:	8ca21154 	lw	v0,4436(a1)
10002ccc:	02073821 	addu	a3,s0,a3
10002cd0:	2442fff8 	addiu	v0,v0,-8
10002cd4:	36260001 	ori	a2,s1,0x1
10002cd8:	00518823 	subu	s1,v0,s1
10002cdc:	2402fff8 	li	v0,-8
10002ce0:	ac901168 	sw	s0,4456(a0)
10002ce4:	ae060004 	sw	a2,4(s0)
10002ce8:	ae070000 	sw	a3,0(s0)
10002cec:	26445678 	addiu	a0,s2,22136
10002cf0:	ace30000 	sw	v1,0(a3)
10002cf4:	ace20004 	sw	v0,4(a3)
10002cf8:	0c000b81 	jal	10002e04 <hf_mtxunlock>
10002cfc:	acb11154 	sw	s1,4436(a1)
10002d00:	8fbf001c 	lw	ra,28(sp)
10002d04:	26020008 	addiu	v0,s0,8
10002d08:	8fb20018 	lw	s2,24(sp)
10002d0c:	8fb10014 	lw	s1,20(sp)
10002d10:	8fb00010 	lw	s0,16(sp)
10002d14:	03e00008 	jr	ra
10002d18:	27bd0020 	addiu	sp,sp,32
10002d1c:	0c000b81 	jal	10002e04 <hf_mtxunlock>
10002d20:	26445678 	addiu	a0,s2,22136
10002d24:	8fbf001c 	lw	ra,28(sp)
10002d28:	8fb20018 	lw	s2,24(sp)
10002d2c:	8fb10014 	lw	s1,20(sp)
10002d30:	8fb00010 	lw	s0,16(sp)
10002d34:	00001025 	move	v0,zero
10002d38:	03e00008 	jr	ra
10002d3c:	27bd0020 	addiu	sp,sp,32

10002d40 <heapinit>:
10002d40:	00801025 	move	v0,a0
10002d44:	24a30003 	addiu	v1,a1,3
10002d48:	2404fffc 	li	a0,-4
10002d4c:	00641824 	and	v1,v1,a0
10002d50:	24a5fff8 	addiu	a1,a1,-8
10002d54:	00452821 	addu	a1,v0,a1
10002d58:	2463fff0 	addiu	v1,v1,-16
10002d5c:	ac450000 	sw	a1,0(v0)
10002d60:	ac430004 	sw	v1,4(v0)
10002d64:	aca00004 	sw	zero,4(a1)
10002d68:	8c430004 	lw	v1,4(v0)
10002d6c:	aca00000 	sw	zero,0(a1)
10002d70:	3c051009 	lui	a1,0x1009
10002d74:	aca2116c 	sw	v0,4460(a1)
10002d78:	3c041001 	lui	a0,0x1001
10002d7c:	3c051009 	lui	a1,0x1009
10002d80:	aca21168 	sw	v0,4456(a1)
10002d84:	24845678 	addiu	a0,a0,22136
10002d88:	3c021009 	lui	v0,0x1009
10002d8c:	08000b65 	j	10002d94 <hf_mtxinit>
10002d90:	ac431154 	sw	v1,4436(v0)

10002d94 <hf_mtxinit>:
10002d94:	ac800000 	sw	zero,0(a0)
10002d98:	03e00008 	jr	ra
10002d9c:	00000000 	nop

10002da0 <hf_mtxlock>:
10002da0:	27bdffd8 	addiu	sp,sp,-40
10002da4:	afb10020 	sw	s1,32(sp)
10002da8:	afb0001c 	sw	s0,28(sp)
10002dac:	afbf0024 	sw	ra,36(sp)
10002db0:	00808825 	move	s1,a0
10002db4:	24100001 	li	s0,1
10002db8:	0c00007b 	jal	100001ec <_interrupt_set>
10002dbc:	00002025 	move	a0,zero
10002dc0:	afa20014 	sw	v0,20(sp)
10002dc4:	8e220000 	lw	v0,0(s1)
10002dc8:	00000000 	nop
10002dcc:	afa20010 	sw	v0,16(sp)
10002dd0:	ae300000 	sw	s0,0(s1)
10002dd4:	8fa40014 	lw	a0,20(sp)
10002dd8:	0c00007b 	jal	100001ec <_interrupt_set>
10002ddc:	00000000 	nop
10002de0:	8fa20010 	lw	v0,16(sp)
10002de4:	00000000 	nop
10002de8:	1050fff3 	beq	v0,s0,10002db8 <hf_mtxlock+0x18>
10002dec:	00000000 	nop
10002df0:	8fbf0024 	lw	ra,36(sp)
10002df4:	8fb10020 	lw	s1,32(sp)
10002df8:	8fb0001c 	lw	s0,28(sp)
10002dfc:	03e00008 	jr	ra
10002e00:	27bd0028 	addiu	sp,sp,40

10002e04 <hf_mtxunlock>:
10002e04:	ac800000 	sw	zero,0(a0)
10002e08:	03e00008 	jr	ra
10002e0c:	00000000 	nop

10002e10 <_ni_status>:
10002e10:	3c022000 	lui	v0,0x2000
10002e14:	8c420090 	lw	v0,144(v0)
10002e18:	03e00008 	jr	ra
10002e1c:	3042ffff 	andi	v0,v0,0xffff

10002e20 <_ni_read>:
10002e20:	3c022000 	lui	v0,0x2000
10002e24:	8c420070 	lw	v0,112(v0)
10002e28:	03e00008 	jr	ra
10002e2c:	3042ffff 	andi	v0,v0,0xffff

10002e30 <_ni_write>:
10002e30:	3084ffff 	andi	a0,a0,0xffff
10002e34:	3c022000 	lui	v0,0x2000
10002e38:	ac440080 	sw	a0,128(v0)
10002e3c:	03e00008 	jr	ra
10002e40:	00000000 	nop

10002e44 <ni_flush>:
10002e44:	27bdffe0 	addiu	sp,sp,-32
10002e48:	afb10014 	sw	s1,20(sp)
10002e4c:	3091ffff 	andi	s1,a0,0xffff
10002e50:	afb20018 	sw	s2,24(sp)
10002e54:	afb00010 	sw	s0,16(sp)
10002e58:	afbf001c 	sw	ra,28(sp)
10002e5c:	0c00007b 	jal	100001ec <_interrupt_set>
10002e60:	00002025 	move	a0,zero
10002e64:	00409025 	move	s2,v0
10002e68:	0c000b88 	jal	10002e20 <_ni_read>
10002e6c:	00008025 	move	s0,zero
10002e70:	12200005 	beqz	s1,10002e88 <ni_flush+0x44>
10002e74:	00000000 	nop
10002e78:	0c000b88 	jal	10002e20 <_ni_read>
10002e7c:	26100001 	addiu	s0,s0,1
10002e80:	1611fffd 	bne	s0,s1,10002e78 <ni_flush+0x34>
10002e84:	00000000 	nop
10002e88:	0c00007b 	jal	100001ec <_interrupt_set>
10002e8c:	02402025 	move	a0,s2
10002e90:	0c000b84 	jal	10002e10 <_ni_status>
10002e94:	00000000 	nop
10002e98:	8fbf001c 	lw	ra,28(sp)
10002e9c:	8fb20018 	lw	s2,24(sp)
10002ea0:	8fb10014 	lw	s1,20(sp)
10002ea4:	8fb00010 	lw	s0,16(sp)
10002ea8:	30420001 	andi	v0,v0,0x1
10002eac:	03e00008 	jr	ra
10002eb0:	27bd0020 	addiu	sp,sp,32

10002eb4 <ni_read_packet>:
10002eb4:	27bdffd8 	addiu	sp,sp,-40
10002eb8:	afb2001c 	sw	s2,28(sp)
10002ebc:	00809025 	move	s2,a0
10002ec0:	00002025 	move	a0,zero
10002ec4:	afb30020 	sw	s3,32(sp)
10002ec8:	afb10018 	sw	s1,24(sp)
10002ecc:	afbf0024 	sw	ra,36(sp)
10002ed0:	afb00014 	sw	s0,20(sp)
10002ed4:	0c00007b 	jal	100001ec <_interrupt_set>
10002ed8:	30b1ffff 	andi	s1,a1,0xffff
10002edc:	0c000b88 	jal	10002e20 <_ni_read>
10002ee0:	00409825 	move	s3,v0
10002ee4:	12200008 	beqz	s1,10002f08 <ni_read_packet+0x54>
10002ee8:	00118840 	sll	s1,s1,0x1
10002eec:	00008025 	move	s0,zero
10002ef0:	0c000b88 	jal	10002e20 <_ni_read>
10002ef4:	00000000 	nop
10002ef8:	02501821 	addu	v1,s2,s0
10002efc:	26100002 	addiu	s0,s0,2
10002f00:	1611fffb 	bne	s0,s1,10002ef0 <ni_read_packet+0x3c>
10002f04:	a4620000 	sh	v0,0(v1)
10002f08:	0c00007b 	jal	100001ec <_interrupt_set>
10002f0c:	02602025 	move	a0,s3
10002f10:	8fbf0024 	lw	ra,36(sp)
10002f14:	8fb30020 	lw	s3,32(sp)
10002f18:	8fb2001c 	lw	s2,28(sp)
10002f1c:	8fb10018 	lw	s1,24(sp)
10002f20:	8fb00014 	lw	s0,20(sp)
10002f24:	00001025 	move	v0,zero
10002f28:	03e00008 	jr	ra
10002f2c:	27bd0028 	addiu	sp,sp,40

10002f30 <ni_write_packet>:
10002f30:	27bdffd8 	addiu	sp,sp,-40
10002f34:	afb30020 	sw	s3,32(sp)
10002f38:	afb2001c 	sw	s2,28(sp)
10002f3c:	afbf0024 	sw	ra,36(sp)
10002f40:	afb10018 	sw	s1,24(sp)
10002f44:	afb00014 	sw	s0,20(sp)
10002f48:	00809825 	move	s3,a0
10002f4c:	30b2ffff 	andi	s2,a1,0xffff
10002f50:	0c000b84 	jal	10002e10 <_ni_status>
10002f54:	00000000 	nop
10002f58:	30420001 	andi	v0,v0,0x1
10002f5c:	1040fffc 	beqz	v0,10002f50 <ni_write_packet+0x20>
10002f60:	00000000 	nop
10002f64:	0c00007b 	jal	100001ec <_interrupt_set>
10002f68:	00002025 	move	a0,zero
10002f6c:	0c000b84 	jal	10002e10 <_ni_status>
10002f70:	00408825 	move	s1,v0
10002f74:	30420001 	andi	v0,v0,0x1
10002f78:	14400005 	bnez	v0,10002f90 <ni_write_packet+0x60>
10002f7c:	02202025 	move	a0,s1
10002f80:	0c00007b 	jal	100001ec <_interrupt_set>
10002f84:	00000000 	nop
10002f88:	08000bd4 	j	10002f50 <ni_write_packet+0x20>
10002f8c:	00000000 	nop
10002f90:	12400008 	beqz	s2,10002fb4 <ni_write_packet+0x84>
10002f94:	00129040 	sll	s2,s2,0x1
10002f98:	00008025 	move	s0,zero
10002f9c:	02701021 	addu	v0,s3,s0
10002fa0:	94440000 	lhu	a0,0(v0)
10002fa4:	0c000b8c 	jal	10002e30 <_ni_write>
10002fa8:	26100002 	addiu	s0,s0,2
10002fac:	1612fffc 	bne	s0,s2,10002fa0 <ni_write_packet+0x70>
10002fb0:	02701021 	addu	v0,s3,s0
10002fb4:	0c00007b 	jal	100001ec <_interrupt_set>
10002fb8:	02202025 	move	a0,s1
10002fbc:	8fbf0024 	lw	ra,36(sp)
10002fc0:	8fb30020 	lw	s3,32(sp)
10002fc4:	8fb2001c 	lw	s2,28(sp)
10002fc8:	8fb10018 	lw	s1,24(sp)
10002fcc:	8fb00014 	lw	s0,20(sp)
10002fd0:	00001025 	move	v0,zero
10002fd4:	03e00008 	jr	ra
10002fd8:	27bd0028 	addiu	sp,sp,40

10002fdc <ni_isr>:
10002fdc:	27bdffe0 	addiu	sp,sp,-32
10002fe0:	afb10018 	sw	s1,24(sp)
10002fe4:	3c111009 	lui	s1,0x1009
10002fe8:	8e241174 	lw	a0,4468(s1)
10002fec:	afb00014 	sw	s0,20(sp)
10002ff0:	afbf001c 	sw	ra,28(sp)
10002ff4:	0c000f67 	jal	10003d9c <hf_queue_remhead>
10002ff8:	00000000 	nop
10002ffc:	1040004f 	beqz	v0,1000313c <ni_isr+0x160>
10003000:	00408025 	move	s0,v0
10003004:	00402025 	move	a0,v0
10003008:	0c000bad 	jal	10002eb4 <ni_read_packet>
1000300c:	24050040 	li	a1,64
10003010:	96030002 	lhu	v1,2(s0)
10003014:	2402003e 	li	v0,62
10003018:	14620035 	bne	v1,v0,100030f0 <ni_isr+0x114>
1000301c:	24020021 	li	v0,33
10003020:	96060000 	lhu	a2,0(s0)
10003024:	00000000 	nop
10003028:	14c20038 	bne	a2,v0,1000310c <ni_isr+0x130>
1000302c:	30c500f0 	andi	a1,a2,0xf0
10003030:	96050008 	lhu	a1,8(s0)
10003034:	00000000 	nop
10003038:	10a0002d 	beqz	a1,100030f0 <ni_isr+0x114>
1000303c:	3402ffff 	li	v0,0xffff
10003040:	10a20024 	beq	a1,v0,100030d4 <ni_isr+0xf8>
10003044:	3c021009 	lui	v0,0x1009
10003048:	24420984 	addiu	v0,v0,2436
1000304c:	00001825 	move	v1,zero
10003050:	08000c19 	j	10003064 <ni_isr+0x88>
10003054:	2406001e 	li	a2,30
10003058:	24630001 	addiu	v1,v1,1
1000305c:	10660045 	beq	v1,a2,10003174 <ni_isr+0x198>
10003060:	00000000 	nop
10003064:	94440000 	lhu	a0,0(v0)
10003068:	00000000 	nop
1000306c:	1485fffa 	bne	a0,a1,10003058 <ni_isr+0x7c>
10003070:	24420002 	addiu	v0,v0,2
10003074:	00032080 	sll	a0,v1,0x2
10003078:	00031100 	sll	v0,v1,0x4
1000307c:	00821021 	addu	v0,a0,v0
10003080:	00431823 	subu	v1,v0,v1
10003084:	3c021001 	lui	v0,0x1001
10003088:	000318c0 	sll	v1,v1,0x3
1000308c:	2442567c 	addiu	v0,v0,22140
10003090:	00621021 	addu	v0,v1,v0
10003094:	8c420088 	lw	v0,136(v0)
10003098:	00000000 	nop
1000309c:	10400035 	beqz	v0,10003174 <ni_isr+0x198>
100030a0:	3c021009 	lui	v0,0x1009
100030a4:	244209c0 	addiu	v0,v0,2496
100030a8:	00822021 	addu	a0,a0,v0
100030ac:	8c840000 	lw	a0,0(a0)
100030b0:	0c000f51 	jal	10003d44 <hf_queue_addtail>
100030b4:	02002825 	move	a1,s0
100030b8:	14400029 	bnez	v0,10003160 <ni_isr+0x184>
100030bc:	3c041000 	lui	a0,0x1000
100030c0:	8fbf001c 	lw	ra,28(sp)
100030c4:	8fb10018 	lw	s1,24(sp)
100030c8:	8fb00014 	lw	s0,20(sp)
100030cc:	03e00008 	jr	ra
100030d0:	27bd0020 	addiu	sp,sp,32
100030d4:	3c021009 	lui	v0,0x1009
100030d8:	8c421170 	lw	v0,4464(v0)
100030dc:	00000000 	nop
100030e0:	10400003 	beqz	v0,100030f0 <ni_isr+0x114>
100030e4:	00000000 	nop
100030e8:	0040f809 	jalr	v0
100030ec:	02002025 	move	a0,s0
100030f0:	8fbf001c 	lw	ra,28(sp)
100030f4:	8e241174 	lw	a0,4468(s1)
100030f8:	02002825 	move	a1,s0
100030fc:	8fb10018 	lw	s1,24(sp)
10003100:	8fb00014 	lw	s0,20(sp)
10003104:	08000f51 	j	10003d44 <hf_queue_addtail>
10003108:	27bd0020 	addiu	sp,sp,32
1000310c:	3c041000 	lui	a0,0x1000
10003110:	24845058 	addiu	a0,a0,20568
10003114:	00052902 	srl	a1,a1,0x4
10003118:	0c00080f 	jal	1000203c <kprintf>
1000311c:	30c6000f 	andi	a2,a2,0xf
10003120:	8fbf001c 	lw	ra,28(sp)
10003124:	8e241174 	lw	a0,4468(s1)
10003128:	02002825 	move	a1,s0
1000312c:	8fb10018 	lw	s1,24(sp)
10003130:	8fb00014 	lw	s0,20(sp)
10003134:	08000f51 	j	10003d44 <hf_queue_addtail>
10003138:	27bd0020 	addiu	sp,sp,32
1000313c:	3c041000 	lui	a0,0x1000
10003140:	0c00080f 	jal	1000203c <kprintf>
10003144:	24845114 	addiu	a0,a0,20756
10003148:	8fbf001c 	lw	ra,28(sp)
1000314c:	8fb10018 	lw	s1,24(sp)
10003150:	8fb00014 	lw	s0,20(sp)
10003154:	24040040 	li	a0,64
10003158:	08000b91 	j	10002e44 <ni_flush>
1000315c:	27bd0020 	addiu	sp,sp,32
10003160:	96050008 	lhu	a1,8(s0)
10003164:	0c00080f 	jal	1000203c <kprintf>
10003168:	2484508c 	addiu	a0,a0,20620
1000316c:	08000c3c 	j	100030f0 <ni_isr+0x114>
10003170:	00000000 	nop
10003174:	96060004 	lhu	a2,4(s0)
10003178:	96070006 	lhu	a3,6(s0)
1000317c:	3c041000 	lui	a0,0x1000
10003180:	0c00080f 	jal	1000203c <kprintf>
10003184:	248450c8 	addiu	a0,a0,20680
10003188:	08000c3c 	j	100030f0 <ni_isr+0x114>
1000318c:	00000000 	nop

10003190 <ni_init>:
10003190:	3c041000 	lui	a0,0x1000
10003194:	27bdffd8 	addiu	sp,sp,-40
10003198:	24845140 	addiu	a0,a0,20800
1000319c:	24050005 	li	a1,5
100031a0:	afbf0024 	sw	ra,36(sp)
100031a4:	afb10020 	sw	s1,32(sp)
100031a8:	0c00080f 	jal	1000203c <kprintf>
100031ac:	afb0001c 	sw	s0,28(sp)
100031b0:	3c041000 	lui	a0,0x1000
100031b4:	2484515c 	addiu	a0,a0,20828
100031b8:	0c00080f 	jal	1000203c <kprintf>
100031bc:	24050100 	li	a1,256
100031c0:	0c000f30 	jal	10003cc0 <hf_queue_create>
100031c4:	24040100 	li	a0,256
100031c8:	3c111009 	lui	s1,0x1009
100031cc:	10400035 	beqz	v0,100032a4 <ni_init+0x114>
100031d0:	ae221174 	sw	v0,4468(s1)
100031d4:	3c021009 	lui	v0,0x1009
100031d8:	3c031009 	lui	v1,0x1009
100031dc:	24420984 	addiu	v0,v0,2436
100031e0:	246309c0 	addiu	v1,v1,2496
100031e4:	a4400000 	sh	zero,0(v0)
100031e8:	24420002 	addiu	v0,v0,2
100031ec:	1443fffd 	bne	v0,v1,100031e4 <ni_init+0x54>
100031f0:	00000000 	nop
100031f4:	08000c84 	j	10003210 <ni_init+0x80>
100031f8:	24100100 	li	s0,256
100031fc:	8e241174 	lw	a0,4468(s1)
10003200:	0c000f51 	jal	10003d44 <hf_queue_addtail>
10003204:	00402825 	move	a1,v0
10003208:	1200000e 	beqz	s0,10003244 <ni_init+0xb4>
1000320c:	00000000 	nop
10003210:	0c000afd 	jal	10002bf4 <hf_malloc>
10003214:	24040080 	li	a0,128
10003218:	1440fff8 	bnez	v0,100031fc <ni_init+0x6c>
1000321c:	2610ffff 	addiu	s0,s0,-1
10003220:	24040004 	li	a0,4
10003224:	0c000ebe 	jal	10003af8 <panic>
10003228:	afa20010 	sw	v0,16(sp)
1000322c:	8fa20010 	lw	v0,16(sp)
10003230:	8e241174 	lw	a0,4468(s1)
10003234:	0c000f51 	jal	10003d44 <hf_queue_addtail>
10003238:	00402825 	move	a1,v0
1000323c:	1600fff4 	bnez	s0,10003210 <ni_init+0x80>
10003240:	00000000 	nop
10003244:	0c000b91 	jal	10002e44 <ni_flush>
10003248:	24040040 	li	a0,64
1000324c:	14400008 	bnez	v0,10003270 <ni_init+0xe0>
10003250:	00000000 	nop
10003254:	8fbf0024 	lw	ra,36(sp)
10003258:	8fb10020 	lw	s1,32(sp)
1000325c:	8fb0001c 	lw	s0,28(sp)
10003260:	3c041000 	lui	a0,0x1000
10003264:	248451a0 	addiu	a0,a0,20896
10003268:	0800080f 	j	1000203c <kprintf>
1000326c:	27bd0028 	addiu	sp,sp,40
10003270:	3c051000 	lui	a1,0x1000
10003274:	24040100 	li	a0,256
10003278:	0c00078f 	jal	10001e3c <_irq_register>
1000327c:	24a52fdc 	addiu	a1,a1,12252
10003280:	0c0007bc 	jal	10001ef0 <_irq_mask_set>
10003284:	24040100 	li	a0,256
10003288:	8fbf0024 	lw	ra,36(sp)
1000328c:	8fb10020 	lw	s1,32(sp)
10003290:	8fb0001c 	lw	s0,28(sp)
10003294:	3c041000 	lui	a0,0x1000
10003298:	24845180 	addiu	a0,a0,20864
1000329c:	0800080f 	j	1000203c <kprintf>
100032a0:	27bd0028 	addiu	sp,sp,40
100032a4:	0c000ebe 	jal	10003af8 <panic>
100032a8:	24040004 	li	a0,4
100032ac:	08000c76 	j	100031d8 <ni_init+0x48>
100032b0:	3c021009 	lui	v0,0x1009

100032b4 <hf_cpuid>:
100032b4:	03e00008 	jr	ra
100032b8:	24020005 	li	v0,5

100032bc <hf_comm_create>:
100032bc:	27bdffd8 	addiu	sp,sp,-40
100032c0:	afb10014 	sw	s1,20(sp)
100032c4:	3091ffff 	andi	s1,a0,0xffff
100032c8:	2e22001e 	sltiu	v0,s1,30
100032cc:	afb00010 	sw	s0,16(sp)
100032d0:	afbf0024 	sw	ra,36(sp)
100032d4:	afb40020 	sw	s4,32(sp)
100032d8:	afb3001c 	sw	s3,28(sp)
100032dc:	afb20018 	sw	s2,24(sp)
100032e0:	30b0ffff 	andi	s0,a1,0xffff
100032e4:	10400045 	beqz	v0,100033fc <hf_comm_create+0x140>
100032e8:	30c6ffff 	andi	a2,a2,0xffff
100032ec:	0011a080 	sll	s4,s1,0x2
100032f0:	00111100 	sll	v0,s1,0x4
100032f4:	02821021 	addu	v0,s4,v0
100032f8:	00511023 	subu	v0,v0,s1
100032fc:	000218c0 	sll	v1,v0,0x3
10003300:	3c021001 	lui	v0,0x1001
10003304:	2442567c 	addiu	v0,v0,22140
10003308:	00621021 	addu	v0,v1,v0
1000330c:	8c420088 	lw	v0,136(v0)
10003310:	00000000 	nop
10003314:	10400039 	beqz	v0,100033fc <hf_comm_create+0x140>
10003318:	3c121009 	lui	s2,0x1009
1000331c:	265209c0 	addiu	s2,s2,2496
10003320:	02541021 	addu	v0,s2,s4
10003324:	8c420000 	lw	v0,0(v0)
10003328:	00000000 	nop
1000332c:	1440002a 	bnez	v0,100033d8 <hf_comm_create+0x11c>
10003330:	3c131009 	lui	s3,0x1009
10003334:	26730984 	addiu	s3,s3,2436
10003338:	3c071009 	lui	a3,0x1009
1000333c:	02601025 	move	v0,s3
10003340:	08000cd4 	j	10003350 <hf_comm_create+0x94>
10003344:	24e709c0 	addiu	a3,a3,2496
10003348:	1047000e 	beq	v0,a3,10003384 <hf_comm_create+0xc8>
1000334c:	00000000 	nop
10003350:	94430000 	lhu	v1,0(v0)
10003354:	00000000 	nop
10003358:	1470fffb 	bne	v1,s0,10003348 <hf_comm_create+0x8c>
1000335c:	24420002 	addiu	v0,v0,2
10003360:	2402ff31 	li	v0,-207
10003364:	8fbf0024 	lw	ra,36(sp)
10003368:	8fb40020 	lw	s4,32(sp)
1000336c:	8fb3001c 	lw	s3,28(sp)
10003370:	8fb20018 	lw	s2,24(sp)
10003374:	8fb10014 	lw	s1,20(sp)
10003378:	8fb00010 	lw	s0,16(sp)
1000337c:	03e00008 	jr	ra
10003380:	27bd0028 	addiu	sp,sp,40
10003384:	24c2ffff 	addiu	v0,a2,-1
10003388:	2c420100 	sltiu	v0,v0,256
1000338c:	10400002 	beqz	v0,10003398 <hf_comm_create+0xdc>
10003390:	24040100 	li	a0,256
10003394:	00c02025 	move	a0,a2
10003398:	0c000f30 	jal	10003cc0 <hf_queue_create>
1000339c:	02549021 	addu	s2,s2,s4
100033a0:	10400018 	beqz	v0,10003404 <hf_comm_create+0x148>
100033a4:	ae420000 	sw	v0,0(s2)
100033a8:	00118840 	sll	s1,s1,0x1
100033ac:	8fbf0024 	lw	ra,36(sp)
100033b0:	02719821 	addu	s3,s3,s1
100033b4:	a6700000 	sh	s0,0(s3)
100033b8:	8fb40020 	lw	s4,32(sp)
100033bc:	8fb3001c 	lw	s3,28(sp)
100033c0:	8fb20018 	lw	s2,24(sp)
100033c4:	8fb10014 	lw	s1,20(sp)
100033c8:	8fb00010 	lw	s0,16(sp)
100033cc:	00001025 	move	v0,zero
100033d0:	03e00008 	jr	ra
100033d4:	27bd0028 	addiu	sp,sp,40
100033d8:	8fbf0024 	lw	ra,36(sp)
100033dc:	8fb40020 	lw	s4,32(sp)
100033e0:	8fb3001c 	lw	s3,28(sp)
100033e4:	8fb20018 	lw	s2,24(sp)
100033e8:	8fb10014 	lw	s1,20(sp)
100033ec:	8fb00010 	lw	s0,16(sp)
100033f0:	2402ff32 	li	v0,-206
100033f4:	03e00008 	jr	ra
100033f8:	27bd0028 	addiu	sp,sp,40
100033fc:	08000cd9 	j	10003364 <hf_comm_create+0xa8>
10003400:	2402ff9c 	li	v0,-100
10003404:	08000cd9 	j	10003364 <hf_comm_create+0xa8>
10003408:	2402ff98 	li	v0,-104

1000340c <hf_recvprobe>:
1000340c:	27bdffe8 	addiu	sp,sp,-24
10003410:	afb00010 	sw	s0,16(sp)
10003414:	afbf0014 	sw	ra,20(sp)
10003418:	0c001183 	jal	1000460c <hf_selfid>
1000341c:	3c101009 	lui	s0,0x1009
10003420:	00021080 	sll	v0,v0,0x2
10003424:	261009c0 	addiu	s0,s0,2496
10003428:	00508021 	addu	s0,v0,s0
1000342c:	8e040000 	lw	a0,0(s0)
10003430:	00000000 	nop
10003434:	1080000e 	beqz	a0,10003470 <hf_recvprobe+0x64>
10003438:	2402ff32 	li	v0,-206
1000343c:	0c000f4e 	jal	10003d38 <hf_queue_count>
10003440:	00000000 	nop
10003444:	1040000e 	beqz	v0,10003480 <hf_recvprobe+0x74>
10003448:	00000000 	nop
1000344c:	8e040000 	lw	a0,0(s0)
10003450:	0c000f7d 	jal	10003df4 <hf_queue_get>
10003454:	00002825 	move	a1,zero
10003458:	10400009 	beqz	v0,10003480 <hf_recvprobe+0x74>
1000345c:	3403ffff 	li	v1,0xffff
10003460:	9442000e 	lhu	v0,14(v0)
10003464:	00000000 	nop
10003468:	10430005 	beq	v0,v1,10003480 <hf_recvprobe+0x74>
1000346c:	00000000 	nop
10003470:	8fbf0014 	lw	ra,20(sp)
10003474:	8fb00010 	lw	s0,16(sp)
10003478:	03e00008 	jr	ra
1000347c:	27bd0018 	addiu	sp,sp,24
10003480:	8fbf0014 	lw	ra,20(sp)
10003484:	8fb00010 	lw	s0,16(sp)
10003488:	2402ff30 	li	v0,-208
1000348c:	03e00008 	jr	ra
10003490:	27bd0018 	addiu	sp,sp,24

10003494 <hf_recv>:
10003494:	27bdffc0 	addiu	sp,sp,-64
10003498:	afb70034 	sw	s7,52(sp)
1000349c:	afb60030 	sw	s6,48(sp)
100034a0:	afb5002c 	sw	s5,44(sp)
100034a4:	afb30024 	sw	s3,36(sp)
100034a8:	afb20020 	sw	s2,32(sp)
100034ac:	afb1001c 	sw	s1,28(sp)
100034b0:	afb00018 	sw	s0,24(sp)
100034b4:	0080b025 	move	s6,a0
100034b8:	afbf003c 	sw	ra,60(sp)
100034bc:	afbe0038 	sw	s8,56(sp)
100034c0:	afb40028 	sw	s4,40(sp)
100034c4:	00a0a825 	move	s5,a1
100034c8:	afa60048 	sw	a2,72(sp)
100034cc:	00e0b825 	move	s7,a3
100034d0:	97b30052 	lhu	s3,82(sp)
100034d4:	0c001183 	jal	1000460c <hf_selfid>
100034d8:	3c101009 	lui	s0,0x1009
100034dc:	00028880 	sll	s1,v0,0x2
100034e0:	261009c0 	addiu	s0,s0,2496
100034e4:	02119021 	addu	s2,s0,s1
100034e8:	8e440000 	lw	a0,0(s2)
100034ec:	00000000 	nop
100034f0:	108000c4 	beqz	a0,10003804 <hf_recv+0x370>
100034f4:	2402ff32 	li	v0,-206
100034f8:	0c000f4e 	jal	10003d38 <hf_queue_count>
100034fc:	24140001 	li	s4,1
10003500:	14400006 	bnez	v0,1000351c <hf_recv+0x88>
10003504:	00000000 	nop
10003508:	8e440000 	lw	a0,0(s2)
1000350c:	0c000f4e 	jal	10003d38 <hf_queue_count>
10003510:	00000000 	nop
10003514:	1040fffc 	beqz	v0,10003508 <hf_recv+0x74>
10003518:	00000000 	nop
1000351c:	8e440000 	lw	a0,0(s2)
10003520:	0c000f7d 	jal	10003df4 <hf_queue_get>
10003524:	00002825 	move	a1,zero
10003528:	10400005 	beqz	v0,10003540 <hf_recv+0xac>
1000352c:	00002025 	move	a0,zero
10003530:	9443000e 	lhu	v1,14(v0)
10003534:	00000000 	nop
10003538:	1073000e 	beq	v1,s3,10003574 <hf_recv+0xe0>
1000353c:	00000000 	nop
10003540:	0c00007b 	jal	100001ec <_interrupt_set>
10003544:	00000000 	nop
10003548:	8e440000 	lw	a0,0(s2)
1000354c:	0c000f67 	jal	10003d9c <hf_queue_remhead>
10003550:	0040f025 	move	s8,v0
10003554:	8e440000 	lw	a0,0(s2)
10003558:	0c000f51 	jal	10003d44 <hf_queue_addtail>
1000355c:	00402825 	move	a1,v0
10003560:	0c00007b 	jal	100001ec <_interrupt_set>
10003564:	03c02025 	move	a0,s8
10003568:	8e440000 	lw	a0,0(s2)
1000356c:	08000d43 	j	1000350c <hf_recv+0x78>
10003570:	00000000 	nop
10003574:	9442000c 	lhu	v0,12(v0)
10003578:	00000000 	nop
1000357c:	1454fff0 	bne	v0,s4,10003540 <hf_recv+0xac>
10003580:	00000000 	nop
10003584:	0c00007b 	jal	100001ec <_interrupt_set>
10003588:	00002025 	move	a0,zero
1000358c:	8e440000 	lw	a0,0(s2)
10003590:	0c000f67 	jal	10003d9c <hf_queue_remhead>
10003594:	0040a025 	move	s4,v0
10003598:	0040f025 	move	s8,v0
1000359c:	0c00007b 	jal	100001ec <_interrupt_set>
100035a0:	02802025 	move	a0,s4
100035a4:	97c30004 	lhu	v1,4(s8)
100035a8:	24020070 	li	v0,112
100035ac:	a6c30000 	sh	v1,0(s6)
100035b0:	97c30006 	lhu	v1,6(s8)
100035b4:	00000000 	nop
100035b8:	a6a30000 	sh	v1,0(s5)
100035bc:	97c4000a 	lhu	a0,10(s8)
100035c0:	00000000 	nop
100035c4:	0082001b 	divu	zero,a0,v0
100035c8:	a6e40000 	sh	a0,0(s7)
100035cc:	97c6000c 	lhu	a2,12(s8)
100035d0:	00001010 	mfhi	v0
100035d4:	3042ffff 	andi	v0,v0,0xffff
100035d8:	0000a012 	mflo	s4
100035dc:	10400002 	beqz	v0,100035e8 <hf_recv+0x154>
100035e0:	00000000 	nop
100035e4:	26940001 	addiu	s4,s4,1
100035e8:	3294ffff 	andi	s4,s4,0xffff
100035ec:	2e820002 	sltiu	v0,s4,2
100035f0:	14400093 	bnez	v0,10003840 <hf_recv+0x3ac>
100035f4:	3c051009 	lui	a1,0x1009
100035f8:	24c2ffff 	addiu	v0,a2,-1
100035fc:	02821021 	addu	v0,s4,v0
10003600:	3042ffff 	andi	v0,v0,0xffff
10003604:	3c041009 	lui	a0,0x1009
10003608:	8fa30048 	lw	v1,72(sp)
1000360c:	afa20014 	sw	v0,20(sp)
10003610:	0000b025 	move	s6,zero
10003614:	00c01025 	move	v0,a2
10003618:	afa40010 	sw	a0,16(sp)
1000361c:	02118021 	addu	s0,s0,s1
10003620:	24d50001 	addiu	s5,a2,1
10003624:	10c20002 	beq	a2,v0,10003630 <hf_recv+0x19c>
10003628:	32b5ffff 	andi	s5,s5,0xffff
1000362c:	2416ff34 	li	s6,-204
10003630:	27c40010 	addiu	a0,s8,16
10003634:	24720070 	addiu	s2,v1,112
10003638:	94860000 	lhu	a2,0(a0)
1000363c:	24630002 	addiu	v1,v1,2
10003640:	00063202 	srl	a2,a2,0x8
10003644:	a066fffe 	sb	a2,-2(v1)
10003648:	94860000 	lhu	a2,0(a0)
1000364c:	24840002 	addiu	a0,a0,2
10003650:	1643fff9 	bne	s2,v1,10003638 <hf_recv+0x1a4>
10003654:	a066ffff 	sb	a2,-1(v1)
10003658:	0c00007b 	jal	100001ec <_interrupt_set>
1000365c:	00002025 	move	a0,zero
10003660:	8fa50010 	lw	a1,16(sp)
10003664:	00408825 	move	s1,v0
10003668:	8ca41174 	lw	a0,4468(a1)
1000366c:	0c000f51 	jal	10003d44 <hf_queue_addtail>
10003670:	03c02825 	move	a1,s8
10003674:	0c00007b 	jal	100001ec <_interrupt_set>
10003678:	02202025 	move	a0,s1
1000367c:	24110802 	li	s1,2050
10003680:	8e040000 	lw	a0,0(s0)
10003684:	0c000f4e 	jal	10003d38 <hf_queue_count>
10003688:	00000000 	nop
1000368c:	1040fffc 	beqz	v0,10003680 <hf_recv+0x1ec>
10003690:	00000000 	nop
10003694:	8e040000 	lw	a0,0(s0)
10003698:	0c000f7d 	jal	10003df4 <hf_queue_get>
1000369c:	00002825 	move	a1,zero
100036a0:	2631ffff 	addiu	s1,s1,-1
100036a4:	10400005 	beqz	v0,100036bc <hf_recv+0x228>
100036a8:	00002025 	move	a0,zero
100036ac:	9443000e 	lhu	v1,14(v0)
100036b0:	00000000 	nop
100036b4:	1073001d 	beq	v1,s3,1000372c <hf_recv+0x298>
100036b8:	00000000 	nop
100036bc:	0c00007b 	jal	100001ec <_interrupt_set>
100036c0:	00000000 	nop
100036c4:	8e040000 	lw	a0,0(s0)
100036c8:	0c000f67 	jal	10003d9c <hf_queue_remhead>
100036cc:	0040f025 	move	s8,v0
100036d0:	8e040000 	lw	a0,0(s0)
100036d4:	0c000f51 	jal	10003d44 <hf_queue_addtail>
100036d8:	00402825 	move	a1,v0
100036dc:	0c00007b 	jal	100001ec <_interrupt_set>
100036e0:	03c02025 	move	a0,s8
100036e4:	1620ffe6 	bnez	s1,10003680 <hf_recv+0x1ec>
100036e8:	00000000 	nop
100036ec:	0c00007b 	jal	100001ec <_interrupt_set>
100036f0:	00002025 	move	a0,zero
100036f4:	8e040000 	lw	a0,0(s0)
100036f8:	0c000f67 	jal	10003d9c <hf_queue_remhead>
100036fc:	00408825 	move	s1,v0
10003700:	02202025 	move	a0,s1
10003704:	0c00007b 	jal	100001ec <_interrupt_set>
10003708:	0040f025 	move	s8,v0
1000370c:	8fa20014 	lw	v0,20(sp)
10003710:	00000000 	nop
10003714:	12a20015 	beq	s5,v0,1000376c <hf_recv+0x2d8>
10003718:	2684fffe 	addiu	a0,s4,-2
1000371c:	97c2000c 	lhu	v0,12(s8)
10003720:	02401825 	move	v1,s2
10003724:	08000d88 	j	10003620 <hf_recv+0x18c>
10003728:	02a03025 	move	a2,s5
1000372c:	9442000c 	lhu	v0,12(v0)
10003730:	00000000 	nop
10003734:	1455ffe1 	bne	v0,s5,100036bc <hf_recv+0x228>
10003738:	00000000 	nop
1000373c:	0c00007b 	jal	100001ec <_interrupt_set>
10003740:	00002025 	move	a0,zero
10003744:	8e040000 	lw	a0,0(s0)
10003748:	0c000f67 	jal	10003d9c <hf_queue_remhead>
1000374c:	00408825 	move	s1,v0
10003750:	02202025 	move	a0,s1
10003754:	0c00007b 	jal	100001ec <_interrupt_set>
10003758:	0040f025 	move	s8,v0
1000375c:	8fa20014 	lw	v0,20(sp)
10003760:	00000000 	nop
10003764:	16a2ffed 	bne	s5,v0,1000371c <hf_recv+0x288>
10003768:	2684fffe 	addiu	a0,s4,-2
1000376c:	3084ffff 	andi	a0,a0,0xffff
10003770:	24840001 	addiu	a0,a0,1
10003774:	97c2000c 	lhu	v0,12(s8)
10003778:	00041900 	sll	v1,a0,0x4
1000377c:	000421c0 	sll	a0,a0,0x7
10003780:	1055002c 	beq	v0,s5,10003834 <hf_recv+0x3a0>
10003784:	00831823 	subu	v1,a0,v1
10003788:	96e40000 	lhu	a0,0(s7)
1000378c:	2416ff34 	li	s6,-204
10003790:	8fa50048 	lw	a1,72(sp)
10003794:	27c60010 	addiu	a2,s8,16
10003798:	00a31021 	addu	v0,a1,v1
1000379c:	08000df3 	j	100037cc <hf_recv+0x338>
100037a0:	24670070 	addiu	a3,v1,112
100037a4:	94c40000 	lhu	a0,0(a2)
100037a8:	24420002 	addiu	v0,v0,2
100037ac:	00042202 	srl	a0,a0,0x8
100037b0:	a044fffe 	sb	a0,-2(v0)
100037b4:	94c40000 	lhu	a0,0(a2)
100037b8:	24c60002 	addiu	a2,a2,2
100037bc:	10670006 	beq	v1,a3,100037d8 <hf_recv+0x344>
100037c0:	a044ffff 	sb	a0,-1(v0)
100037c4:	96e40000 	lhu	a0,0(s7)
100037c8:	00000000 	nop
100037cc:	0064202a 	slt	a0,v1,a0
100037d0:	1480fff4 	bnez	a0,100037a4 <hf_recv+0x310>
100037d4:	24630002 	addiu	v1,v1,2
100037d8:	0c00007b 	jal	100001ec <_interrupt_set>
100037dc:	00002025 	move	a0,zero
100037e0:	00408025 	move	s0,v0
100037e4:	8fa20010 	lw	v0,16(sp)
100037e8:	00000000 	nop
100037ec:	8c441174 	lw	a0,4468(v0)
100037f0:	0c000f51 	jal	10003d44 <hf_queue_addtail>
100037f4:	03c02825 	move	a1,s8
100037f8:	0c00007b 	jal	100001ec <_interrupt_set>
100037fc:	02002025 	move	a0,s0
10003800:	02c01025 	move	v0,s6
10003804:	8fbf003c 	lw	ra,60(sp)
10003808:	8fbe0038 	lw	s8,56(sp)
1000380c:	8fb70034 	lw	s7,52(sp)
10003810:	8fb60030 	lw	s6,48(sp)
10003814:	8fb5002c 	lw	s5,44(sp)
10003818:	8fb40028 	lw	s4,40(sp)
1000381c:	8fb30024 	lw	s3,36(sp)
10003820:	8fb20020 	lw	s2,32(sp)
10003824:	8fb1001c 	lw	s1,28(sp)
10003828:	8fb00018 	lw	s0,24(sp)
1000382c:	03e00008 	jr	ra
10003830:	27bd0040 	addiu	sp,sp,64
10003834:	96e40000 	lhu	a0,0(s7)
10003838:	08000de4 	j	10003790 <hf_recv+0x2fc>
1000383c:	00000000 	nop
10003840:	00001825 	move	v1,zero
10003844:	0000b025 	move	s6,zero
10003848:	08000de4 	j	10003790 <hf_recv+0x2fc>
1000384c:	afa50010 	sw	a1,16(sp)

10003850 <hf_send>:
10003850:	27bdff38 	addiu	sp,sp,-200
10003854:	97a300da 	lhu	v1,218(sp)
10003858:	afb700bc 	sw	s7,188(sp)
1000385c:	afb400b0 	sw	s4,176(sp)
10003860:	afb100a4 	sw	s1,164(sp)
10003864:	afa30090 	sw	v1,144(sp)
10003868:	3091ffff 	andi	s1,a0,0xffff
1000386c:	afbf00c4 	sw	ra,196(sp)
10003870:	afbe00c0 	sw	s8,192(sp)
10003874:	afb600b8 	sw	s6,184(sp)
10003878:	afb500b4 	sw	s5,180(sp)
1000387c:	afb300ac 	sw	s3,172(sp)
10003880:	afb200a8 	sw	s2,168(sp)
10003884:	afb000a0 	sw	s0,160(sp)
10003888:	afa600d0 	sw	a2,208(sp)
1000388c:	30b4ffff 	andi	s4,a1,0xffff
10003890:	0c001183 	jal	1000460c <hf_selfid>
10003894:	30f7ffff 	andi	s7,a3,0xffff
10003898:	3c041009 	lui	a0,0x1009
1000389c:	00021880 	sll	v1,v0,0x2
100038a0:	248409c0 	addiu	a0,a0,2496
100038a4:	00641821 	addu	v1,v1,a0
100038a8:	8c630000 	lw	v1,0(v1)
100038ac:	00000000 	nop
100038b0:	1060008f 	beqz	v1,10003af0 <hf_send+0x2a0>
100038b4:	24030070 	li	v1,112
100038b8:	02e3001b 	divu	zero,s7,v1
100038bc:	00001810 	mfhi	v1
100038c0:	3063ffff 	andi	v1,v1,0xffff
100038c4:	00009012 	mflo	s2
100038c8:	10600002 	beqz	v1,100038d4 <hf_send+0x84>
100038cc:	00000000 	nop
100038d0:	26520001 	addiu	s2,s2,1
100038d4:	3252ffff 	andi	s2,s2,0xffff
100038d8:	2e430002 	sltiu	v1,s2,2
100038dc:	14600074 	bnez	v1,10003ab0 <hf_send+0x260>
100038e0:	24060003 	li	a2,3
100038e4:	24030003 	li	v1,3
100038e8:	0223001b 	divu	zero,s1,v1
100038ec:	00021040 	sll	v0,v0,0x1
100038f0:	8fa300d0 	lw	v1,208(sp)
100038f4:	afa20098 	sw	v0,152(sp)
100038f8:	24730001 	addiu	s3,v1,1
100038fc:	3c021009 	lui	v0,0x1009
10003900:	8fa30098 	lw	v1,152(sp)
10003904:	24420984 	addiu	v0,v0,2436
10003908:	afa20094 	sw	v0,148(sp)
1000390c:	00438021 	addu	s0,v0,v1
10003910:	24160001 	li	s6,1
10003914:	27b50090 	addiu	s5,sp,144
10003918:	27be0010 	addiu	s8,sp,16
1000391c:	00002810 	mfhi	a1
10003920:	30a2ffff 	andi	v0,a1,0xffff
10003924:	00021100 	sll	v0,v0,0x4
10003928:	00008812 	mflo	s1
1000392c:	00518825 	or	s1,v0,s1
10003930:	3231ffff 	andi	s1,s1,0xffff
10003934:	24030005 	li	v1,5
10003938:	96020000 	lhu	v0,0(s0)
1000393c:	a7a30014 	sh	v1,20(sp)
10003940:	8fa30090 	lw	v1,144(sp)
10003944:	2404003e 	li	a0,62
10003948:	a7a3001e 	sh	v1,30(sp)
1000394c:	a7b10010 	sh	s1,16(sp)
10003950:	a7a40012 	sh	a0,18(sp)
10003954:	a7a20016 	sh	v0,22(sp)
10003958:	a7b40018 	sh	s4,24(sp)
1000395c:	a7b7001a 	sh	s7,26(sp)
10003960:	a7b6001c 	sh	s6,28(sp)
10003964:	27a50020 	addiu	a1,sp,32
10003968:	02601825 	move	v1,s3
1000396c:	9062ffff 	lbu	v0,-1(v1)
10003970:	90660000 	lbu	a2,0(v1)
10003974:	00021200 	sll	v0,v0,0x8
10003978:	00461025 	or	v0,v0,a2
1000397c:	a4a20000 	sh	v0,0(a1)
10003980:	24a50002 	addiu	a1,a1,2
10003984:	16a5fff9 	bne	s5,a1,1000396c <hf_send+0x11c>
10003988:	24630002 	addiu	v1,v1,2
1000398c:	03c02025 	move	a0,s8
10003990:	0c000bcc 	jal	10002f30 <ni_write_packet>
10003994:	24050040 	li	a1,64
10003998:	26ca0001 	addiu	t2,s6,1
1000399c:	3156ffff 	andi	s6,t2,0xffff
100039a0:	16d2ffe4 	bne	s6,s2,10003934 <hf_send+0xe4>
100039a4:	26730070 	addiu	s3,s3,112
100039a8:	2642fffe 	addiu	v0,s2,-2
100039ac:	3042ffff 	andi	v0,v0,0xffff
100039b0:	24420001 	addiu	v0,v0,1
100039b4:	00022900 	sll	a1,v0,0x4
100039b8:	000211c0 	sll	v0,v0,0x7
100039bc:	00452823 	subu	a1,v0,a1
100039c0:	8fa30094 	lw	v1,148(sp)
100039c4:	8fa40098 	lw	a0,152(sp)
100039c8:	a7b10010 	sh	s1,16(sp)
100039cc:	00641021 	addu	v0,v1,a0
100039d0:	2403003e 	li	v1,62
100039d4:	a7a30012 	sh	v1,18(sp)
100039d8:	24030005 	li	v1,5
100039dc:	a7a30014 	sh	v1,20(sp)
100039e0:	8fa30090 	lw	v1,144(sp)
100039e4:	94420000 	lhu	v0,0(v0)
100039e8:	a7a3001e 	sh	v1,30(sp)
100039ec:	8fa300d0 	lw	v1,208(sp)
100039f0:	a7a20016 	sh	v0,22(sp)
100039f4:	a7b40018 	sh	s4,24(sp)
100039f8:	a7b7001a 	sh	s7,26(sp)
100039fc:	a7b2001c 	sh	s2,28(sp)
10003a00:	00a04025 	move	t0,a1
10003a04:	00658021 	addu	s0,v1,a1
10003a08:	24020008 	li	v0,8
10003a0c:	08000e8e 	j	10003a38 <hf_send+0x1e8>
10003a10:	240a0040 	li	t2,64
10003a14:	92040000 	lbu	a0,0(s0)
10003a18:	92060001 	lbu	a2,1(s0)
10003a1c:	00042200 	sll	a0,a0,0x8
10003a20:	00862025 	or	a0,a0,a2
10003a24:	24420001 	addiu	v0,v0,1
10003a28:	a4640010 	sh	a0,16(v1)
10003a2c:	24a50002 	addiu	a1,a1,2
10003a30:	104a000d 	beq	v0,t2,10003a68 <hf_send+0x218>
10003a34:	26100002 	addiu	s0,s0,2
10003a38:	00a81823 	subu	v1,a1,t0
10003a3c:	00b7202a 	slt	a0,a1,s7
10003a40:	1480fff4 	bnez	a0,10003a14 <hf_send+0x1c4>
10003a44:	03c31821 	addu	v1,s8,v1
10003a48:	00021040 	sll	v0,v0,0x1
10003a4c:	03c21021 	addu	v0,s8,v0
10003a50:	27a40090 	addiu	a0,sp,144
10003a54:	2403dead 	li	v1,-8531
10003a58:	a4430000 	sh	v1,0(v0)
10003a5c:	24420002 	addiu	v0,v0,2
10003a60:	1444fffd 	bne	v0,a0,10003a58 <hf_send+0x208>
10003a64:	00000000 	nop
10003a68:	03c02025 	move	a0,s8
10003a6c:	0c000bcc 	jal	10002f30 <ni_write_packet>
10003a70:	24050040 	li	a1,64
10003a74:	0c00067a 	jal	100019e8 <delay_ms>
10003a78:	24040001 	li	a0,1
10003a7c:	00001025 	move	v0,zero
10003a80:	8fbf00c4 	lw	ra,196(sp)
10003a84:	8fbe00c0 	lw	s8,192(sp)
10003a88:	8fb700bc 	lw	s7,188(sp)
10003a8c:	8fb600b8 	lw	s6,184(sp)
10003a90:	8fb500b4 	lw	s5,180(sp)
10003a94:	8fb400b0 	lw	s4,176(sp)
10003a98:	8fb300ac 	lw	s3,172(sp)
10003a9c:	8fb200a8 	lw	s2,168(sp)
10003aa0:	8fb100a4 	lw	s1,164(sp)
10003aa4:	8fb000a0 	lw	s0,160(sp)
10003aa8:	03e00008 	jr	ra
10003aac:	27bd00c8 	addiu	sp,sp,200
10003ab0:	0226001b 	divu	zero,s1,a2
10003ab4:	00021040 	sll	v0,v0,0x1
10003ab8:	afa20098 	sw	v0,152(sp)
10003abc:	3c021009 	lui	v0,0x1009
10003ac0:	24420984 	addiu	v0,v0,2436
10003ac4:	24120001 	li	s2,1
10003ac8:	00002825 	move	a1,zero
10003acc:	afa20094 	sw	v0,148(sp)
10003ad0:	27be0010 	addiu	s8,sp,16
10003ad4:	00001810 	mfhi	v1
10003ad8:	3063ffff 	andi	v1,v1,0xffff
10003adc:	00031900 	sll	v1,v1,0x4
10003ae0:	00008812 	mflo	s1
10003ae4:	00718825 	or	s1,v1,s1
10003ae8:	08000e70 	j	100039c0 <hf_send+0x170>
10003aec:	3231ffff 	andi	s1,s1,0xffff
10003af0:	08000ea0 	j	10003a80 <hf_send+0x230>
10003af4:	2402ff32 	li	v0,-206

10003af8 <panic>:
10003af8:	27bdffe8 	addiu	sp,sp,-24
10003afc:	afb00010 	sw	s0,16(sp)
10003b00:	00808025 	move	s0,a0
10003b04:	afbf0014 	sw	ra,20(sp)
10003b08:	0c00007b 	jal	100001ec <_interrupt_set>
10003b0c:	00002025 	move	a0,zero
10003b10:	3c021009 	lui	v0,0x1009
10003b14:	94451144 	lhu	a1,4420(v0)
10003b18:	3c041000 	lui	a0,0x1000
10003b1c:	0c00080f 	jal	1000203c <kprintf>
10003b20:	248451c0 	addiu	a0,a0,20928
10003b24:	2e02000f 	sltiu	v0,s0,15
10003b28:	10400008 	beqz	v0,10003b4c <panic+0x54>
10003b2c:	3c021000 	lui	v0,0x1000
10003b30:	00108080 	sll	s0,s0,0x2
10003b34:	2442537c 	addiu	v0,v0,21372
10003b38:	00501021 	addu	v0,v0,s0
10003b3c:	8c420000 	lw	v0,0(v0)
10003b40:	00000000 	nop
10003b44:	00400008 	jr	v0
10003b48:	00000000 	nop
10003b4c:	3c041000 	lui	a0,0x1000
10003b50:	0c00080f 	jal	1000203c <kprintf>
10003b54:	24845358 	addiu	a0,a0,21336
10003b58:	3c041000 	lui	a0,0x1000
10003b5c:	0c000a19 	jal	10002864 <printf>
10003b60:	24845368 	addiu	a0,a0,21352
10003b64:	0c00078b 	jal	10001e2c <_panic>
10003b68:	00000000 	nop
10003b6c:	08000edb 	j	10003b6c <panic+0x74>
10003b70:	00000000 	nop
10003b74:	3c041000 	lui	a0,0x1000
10003b78:	0c00080f 	jal	1000203c <kprintf>
10003b7c:	24845344 	addiu	a0,a0,21316
10003b80:	08000ed7 	j	10003b5c <panic+0x64>
10003b84:	3c041000 	lui	a0,0x1000
10003b88:	3c041000 	lui	a0,0x1000
10003b8c:	0c00080f 	jal	1000203c <kprintf>
10003b90:	24845328 	addiu	a0,a0,21288
10003b94:	08000ed7 	j	10003b5c <panic+0x64>
10003b98:	3c041000 	lui	a0,0x1000
10003b9c:	3c041000 	lui	a0,0x1000
10003ba0:	0c00080f 	jal	1000203c <kprintf>
10003ba4:	24845304 	addiu	a0,a0,21252
10003ba8:	08000ed7 	j	10003b5c <panic+0x64>
10003bac:	3c041000 	lui	a0,0x1000
10003bb0:	3c041000 	lui	a0,0x1000
10003bb4:	0c00080f 	jal	1000203c <kprintf>
10003bb8:	248452e4 	addiu	a0,a0,21220
10003bbc:	08000ed7 	j	10003b5c <panic+0x64>
10003bc0:	3c041000 	lui	a0,0x1000
10003bc4:	3c041000 	lui	a0,0x1000
10003bc8:	0c00080f 	jal	1000203c <kprintf>
10003bcc:	248452c4 	addiu	a0,a0,21188
10003bd0:	08000ed7 	j	10003b5c <panic+0x64>
10003bd4:	3c041000 	lui	a0,0x1000
10003bd8:	3c041000 	lui	a0,0x1000
10003bdc:	0c00080f 	jal	1000203c <kprintf>
10003be0:	248452ac 	addiu	a0,a0,21164
10003be4:	08000ed7 	j	10003b5c <panic+0x64>
10003be8:	3c041000 	lui	a0,0x1000
10003bec:	3c041000 	lui	a0,0x1000
10003bf0:	0c00080f 	jal	1000203c <kprintf>
10003bf4:	24845278 	addiu	a0,a0,21112
10003bf8:	08000ed7 	j	10003b5c <panic+0x64>
10003bfc:	3c041000 	lui	a0,0x1000
10003c00:	3c041000 	lui	a0,0x1000
10003c04:	0c00080f 	jal	1000203c <kprintf>
10003c08:	24845290 	addiu	a0,a0,21136
10003c0c:	08000ed7 	j	10003b5c <panic+0x64>
10003c10:	3c041000 	lui	a0,0x1000
10003c14:	3c041000 	lui	a0,0x1000
10003c18:	0c00080f 	jal	1000203c <kprintf>
10003c1c:	24845260 	addiu	a0,a0,21088
10003c20:	08000ed7 	j	10003b5c <panic+0x64>
10003c24:	3c041000 	lui	a0,0x1000
10003c28:	3c041000 	lui	a0,0x1000
10003c2c:	0c00080f 	jal	1000203c <kprintf>
10003c30:	24845250 	addiu	a0,a0,21072
10003c34:	08000ed7 	j	10003b5c <panic+0x64>
10003c38:	3c041000 	lui	a0,0x1000
10003c3c:	3c041000 	lui	a0,0x1000
10003c40:	0c00080f 	jal	1000203c <kprintf>
10003c44:	24845230 	addiu	a0,a0,21040
10003c48:	08000ed7 	j	10003b5c <panic+0x64>
10003c4c:	3c041000 	lui	a0,0x1000
10003c50:	3c041000 	lui	a0,0x1000
10003c54:	0c00080f 	jal	1000203c <kprintf>
10003c58:	2484520c 	addiu	a0,a0,21004
10003c5c:	08000ed7 	j	10003b5c <panic+0x64>
10003c60:	3c041000 	lui	a0,0x1000
10003c64:	3c041000 	lui	a0,0x1000
10003c68:	0c00080f 	jal	1000203c <kprintf>
10003c6c:	248451f0 	addiu	a0,a0,20976
10003c70:	08000ed7 	j	10003b5c <panic+0x64>
10003c74:	3c041000 	lui	a0,0x1000
10003c78:	3c041000 	lui	a0,0x1000
10003c7c:	0c00080f 	jal	1000203c <kprintf>
10003c80:	248451dc 	addiu	a0,a0,20956
10003c84:	08000ed7 	j	10003b5c <panic+0x64>
10003c88:	3c041000 	lui	a0,0x1000
10003c8c:	3c041000 	lui	a0,0x1000
10003c90:	0c00080f 	jal	1000203c <kprintf>
10003c94:	2484521c 	addiu	a0,a0,21020
10003c98:	08000ed7 	j	10003b5c <panic+0x64>
10003c9c:	3c041000 	lui	a0,0x1000

10003ca0 <hf_schedlock>:
10003ca0:	14800004 	bnez	a0,10003cb4 <hf_schedlock+0x14>
10003ca4:	24030001 	li	v1,1
10003ca8:	3c021009 	lui	v0,0x1009
10003cac:	03e00008 	jr	ra
10003cb0:	a4431160 	sh	v1,4448(v0)
10003cb4:	3c021009 	lui	v0,0x1009
10003cb8:	03e00008 	jr	ra
10003cbc:	a4401160 	sh	zero,4448(v0)

10003cc0 <hf_queue_create>:
10003cc0:	27bdffe0 	addiu	sp,sp,-32
10003cc4:	afb10018 	sw	s1,24(sp)
10003cc8:	00808825 	move	s1,a0
10003ccc:	afb00014 	sw	s0,20(sp)
10003cd0:	afbf001c 	sw	ra,28(sp)
10003cd4:	0c000afd 	jal	10002bf4 <hf_malloc>
10003cd8:	24040014 	li	a0,20
10003cdc:	10400010 	beqz	v0,10003d20 <hf_queue_create+0x60>
10003ce0:	00408025 	move	s0,v0
10003ce4:	26240001 	addiu	a0,s1,1
10003ce8:	ac440000 	sw	a0,0(v0)
10003cec:	0c000afd 	jal	10002bf4 <hf_malloc>
10003cf0:	00042080 	sll	a0,a0,0x2
10003cf4:	1040000c 	beqz	v0,10003d28 <hf_queue_create+0x68>
10003cf8:	ae020010 	sw	v0,16(s0)
10003cfc:	ae00000c 	sw	zero,12(s0)
10003d00:	ae000008 	sw	zero,8(s0)
10003d04:	ae000004 	sw	zero,4(s0)
10003d08:	02001025 	move	v0,s0
10003d0c:	8fbf001c 	lw	ra,28(sp)
10003d10:	8fb10018 	lw	s1,24(sp)
10003d14:	8fb00014 	lw	s0,20(sp)
10003d18:	03e00008 	jr	ra
10003d1c:	27bd0020 	addiu	sp,sp,32
10003d20:	08000f43 	j	10003d0c <hf_queue_create+0x4c>
10003d24:	00001025 	move	v0,zero
10003d28:	0c000ae2 	jal	10002b88 <hf_free>
10003d2c:	02002025 	move	a0,s0
10003d30:	08000f43 	j	10003d0c <hf_queue_create+0x4c>
10003d34:	00001025 	move	v0,zero

10003d38 <hf_queue_count>:
10003d38:	8c820004 	lw	v0,4(a0)
10003d3c:	03e00008 	jr	ra
10003d40:	00000000 	nop

10003d44 <hf_queue_addtail>:
10003d44:	8c820000 	lw	v0,0(a0)
10003d48:	00000000 	nop
10003d4c:	10400011 	beqz	v0,10003d94 <hf_queue_addtail+0x50>
10003d50:	00000000 	nop
10003d54:	8c86000c 	lw	a2,12(a0)
10003d58:	8c870008 	lw	a3,8(a0)
10003d5c:	24c30001 	addiu	v1,a2,1
10003d60:	0062001a 	div	zero,v1,v0
10003d64:	00001810 	mfhi	v1
10003d68:	10e3000a 	beq	a3,v1,10003d94 <hf_queue_addtail+0x50>
10003d6c:	00063080 	sll	a2,a2,0x2
10003d70:	8c820010 	lw	v0,16(a0)
10003d74:	8c870004 	lw	a3,4(a0)
10003d78:	00463021 	addu	a2,v0,a2
10003d7c:	24e70001 	addiu	a3,a3,1
10003d80:	acc50000 	sw	a1,0(a2)
10003d84:	00001025 	move	v0,zero
10003d88:	ac83000c 	sw	v1,12(a0)
10003d8c:	03e00008 	jr	ra
10003d90:	ac870004 	sw	a3,4(a0)
10003d94:	03e00008 	jr	ra
10003d98:	2402ffff 	li	v0,-1

10003d9c <hf_queue_remhead>:
10003d9c:	8c820000 	lw	v0,0(a0)
10003da0:	00000000 	nop
10003da4:	10400011 	beqz	v0,10003dec <hf_queue_remhead+0x50>
10003da8:	00000000 	nop
10003dac:	8c850008 	lw	a1,8(a0)
10003db0:	8c83000c 	lw	v1,12(a0)
10003db4:	00000000 	nop
10003db8:	10a3000c 	beq	a1,v1,10003dec <hf_queue_remhead+0x50>
10003dbc:	24a30001 	addiu	v1,a1,1
10003dc0:	0062001a 	div	zero,v1,v0
10003dc4:	8c820010 	lw	v0,16(a0)
10003dc8:	8c860004 	lw	a2,4(a0)
10003dcc:	00052880 	sll	a1,a1,0x2
10003dd0:	00452821 	addu	a1,v0,a1
10003dd4:	8ca20000 	lw	v0,0(a1)
10003dd8:	24c5ffff 	addiu	a1,a2,-1
10003ddc:	ac850004 	sw	a1,4(a0)
10003de0:	00001810 	mfhi	v1
10003de4:	03e00008 	jr	ra
10003de8:	ac830008 	sw	v1,8(a0)
10003dec:	03e00008 	jr	ra
10003df0:	00001025 	move	v0,zero

10003df4 <hf_queue_get>:
10003df4:	8c820000 	lw	v0,0(a0)
10003df8:	00000000 	nop
10003dfc:	10400013 	beqz	v0,10003e4c <hf_queue_get+0x58>
10003e00:	00000000 	nop
10003e04:	8c830004 	lw	v1,4(a0)
10003e08:	00000000 	nop
10003e0c:	00a3182a 	slt	v1,a1,v1
10003e10:	1060000e 	beqz	v1,10003e4c <hf_queue_get+0x58>
10003e14:	00000000 	nop
10003e18:	8c830008 	lw	v1,8(a0)
10003e1c:	8c86000c 	lw	a2,12(a0)
10003e20:	00000000 	nop
10003e24:	10660009 	beq	v1,a2,10003e4c <hf_queue_get+0x58>
10003e28:	00a32821 	addu	a1,a1,v1
10003e2c:	00a2001a 	div	zero,a1,v0
10003e30:	8c840010 	lw	a0,16(a0)
10003e34:	00001810 	mfhi	v1
10003e38:	00031080 	sll	v0,v1,0x2
10003e3c:	00821021 	addu	v0,a0,v0
10003e40:	8c420000 	lw	v0,0(v0)
10003e44:	03e00008 	jr	ra
10003e48:	00000000 	nop
10003e4c:	03e00008 	jr	ra
10003e50:	00001025 	move	v0,zero

10003e54 <hf_queue_swap>:
10003e54:	8c830000 	lw	v1,0(a0)
10003e58:	00000000 	nop
10003e5c:	10600022 	beqz	v1,10003ee8 <hf_queue_swap+0x94>
10003e60:	00000000 	nop
10003e64:	8c820004 	lw	v0,4(a0)
10003e68:	00000000 	nop
10003e6c:	00a2382a 	slt	a3,a1,v0
10003e70:	10e0001d 	beqz	a3,10003ee8 <hf_queue_swap+0x94>
10003e74:	00000000 	nop
10003e78:	00c2102a 	slt	v0,a2,v0
10003e7c:	1040001a 	beqz	v0,10003ee8 <hf_queue_swap+0x94>
10003e80:	00000000 	nop
10003e84:	8c870008 	lw	a3,8(a0)
10003e88:	8c82000c 	lw	v0,12(a0)
10003e8c:	00000000 	nop
10003e90:	10e20015 	beq	a3,v0,10003ee8 <hf_queue_swap+0x94>
10003e94:	00c73021 	addu	a2,a2,a3
10003e98:	00c3001a 	div	zero,a2,v1
10003e9c:	00a72821 	addu	a1,a1,a3
10003ea0:	8c880010 	lw	t0,16(a0)
10003ea4:	00001025 	move	v0,zero
10003ea8:	00003010 	mfhi	a2
10003eac:	00063080 	sll	a2,a2,0x2
10003eb0:	00000000 	nop
10003eb4:	00a3001a 	div	zero,a1,v1
10003eb8:	01061821 	addu	v1,t0,a2
10003ebc:	8c690000 	lw	t1,0(v1)
10003ec0:	00003810 	mfhi	a3
10003ec4:	00071880 	sll	v1,a3,0x2
10003ec8:	01031821 	addu	v1,t0,v1
10003ecc:	8c650000 	lw	a1,0(v1)
10003ed0:	ac690000 	sw	t1,0(v1)
10003ed4:	8c830010 	lw	v1,16(a0)
10003ed8:	00000000 	nop
10003edc:	00663021 	addu	a2,v1,a2
10003ee0:	03e00008 	jr	ra
10003ee4:	acc50000 	sw	a1,0(a2)
10003ee8:	03e00008 	jr	ra
10003eec:	2402ffff 	li	v0,-1

10003ef0 <run_queue_next>:
10003ef0:	27bdffe0 	addiu	sp,sp,-32
10003ef4:	afb00014 	sw	s0,20(sp)
10003ef8:	3c101009 	lui	s0,0x1009
10003efc:	8e041158 	lw	a0,4440(s0)
10003f00:	afb10018 	sw	s1,24(sp)
10003f04:	afbf001c 	sw	ra,28(sp)
10003f08:	0c000f67 	jal	10003d9c <hf_queue_remhead>
10003f0c:	3c111009 	lui	s1,0x1009
10003f10:	00402825 	move	a1,v0
10003f14:	10400010 	beqz	v0,10003f58 <run_queue_next+0x68>
10003f18:	ae221148 	sw	v0,4424(s1)
10003f1c:	8e041158 	lw	a0,4440(s0)
10003f20:	0c000f51 	jal	10003d44 <hf_queue_addtail>
10003f24:	00000000 	nop
10003f28:	14400006 	bnez	v0,10003f44 <run_queue_next+0x54>
10003f2c:	24040009 	li	a0,9
10003f30:	8fbf001c 	lw	ra,28(sp)
10003f34:	8fb10018 	lw	s1,24(sp)
10003f38:	8fb00014 	lw	s0,20(sp)
10003f3c:	03e00008 	jr	ra
10003f40:	27bd0020 	addiu	sp,sp,32
10003f44:	8fbf001c 	lw	ra,28(sp)
10003f48:	8fb10018 	lw	s1,24(sp)
10003f4c:	8fb00014 	lw	s0,20(sp)
10003f50:	08000ebe 	j	10003af8 <panic>
10003f54:	27bd0020 	addiu	sp,sp,32
10003f58:	0c000ebe 	jal	10003af8 <panic>
10003f5c:	24040005 	li	a0,5
10003f60:	8e251148 	lw	a1,4424(s1)
10003f64:	08000fc7 	j	10003f1c <run_queue_next+0x2c>
10003f68:	00000000 	nop

10003f6c <rt_schedule>:
10003f6c:	27bdffd0 	addiu	sp,sp,-48
10003f70:	afbf002c 	sw	ra,44(sp)
10003f74:	afb60028 	sw	s6,40(sp)
10003f78:	afb50024 	sw	s5,36(sp)
10003f7c:	afb40020 	sw	s4,32(sp)
10003f80:	afb3001c 	sw	s3,28(sp)
10003f84:	afb20018 	sw	s2,24(sp)
10003f88:	afb10014 	sw	s1,20(sp)
10003f8c:	18800062 	blez	a0,10004118 <rt_schedule+0x1ac>
10003f90:	afb00010 	sw	s0,16(sp)
10003f94:	3c111009 	lui	s1,0x1009
10003f98:	00809825 	move	s3,a0
10003f9c:	0000a825 	move	s5,zero
10003fa0:	00008025 	move	s0,zero
10003fa4:	3c121009 	lui	s2,0x1009
10003fa8:	0220b025 	move	s6,s1
10003fac:	24140003 	li	s4,3
10003fb0:	8e44115c 	lw	a0,4444(s2)
10003fb4:	0c000f67 	jal	10003d9c <hf_queue_remhead>
10003fb8:	00000000 	nop
10003fbc:	00402825 	move	a1,v0
10003fc0:	10400043 	beqz	v0,100040d0 <rt_schedule+0x164>
10003fc4:	ae221148 	sw	v0,4424(s1)
10003fc8:	8e44115c 	lw	a0,4444(s2)
10003fcc:	0c000f51 	jal	10003d44 <hf_queue_addtail>
10003fd0:	00000000 	nop
10003fd4:	10400003 	beqz	v0,10003fe4 <rt_schedule+0x78>
10003fd8:	00000000 	nop
10003fdc:	0c000ebe 	jal	10003af8 <panic>
10003fe0:	2404000b 	li	a0,11
10003fe4:	8e231148 	lw	v1,4424(s1)
10003fe8:	00000000 	nop
10003fec:	90620016 	lbu	v0,22(v1)
10003ff0:	00000000 	nop
10003ff4:	10540009 	beq	v0,s4,1000401c <rt_schedule+0xb0>
10003ff8:	00000000 	nop
10003ffc:	94620034 	lhu	v0,52(v1)
10004000:	00000000 	nop
10004004:	10400005 	beqz	v0,1000401c <rt_schedule+0xb0>
10004008:	00000000 	nop
1000400c:	16a00003 	bnez	s5,1000401c <rt_schedule+0xb0>
10004010:	2442ffff 	addiu	v0,v0,-1
10004014:	94750000 	lhu	s5,0(v1)
10004018:	a4620034 	sh	v0,52(v1)
1000401c:	94620036 	lhu	v0,54(v1)
10004020:	00000000 	nop
10004024:	2442ffff 	addiu	v0,v0,-1
10004028:	3042ffff 	andi	v0,v0,0xffff
1000402c:	14400009 	bnez	v0,10004054 <rt_schedule+0xe8>
10004030:	a4620036 	sh	v0,54(v1)
10004034:	94620034 	lhu	v0,52(v1)
10004038:	00000000 	nop
1000403c:	10400005 	beqz	v0,10004054 <rt_schedule+0xe8>
10004040:	00000000 	nop
10004044:	8c620028 	lw	v0,40(v1)
10004048:	00000000 	nop
1000404c:	24420001 	addiu	v0,v0,1
10004050:	ac620028 	sw	v0,40(v1)
10004054:	94650032 	lhu	a1,50(v1)
10004058:	00000000 	nop
1000405c:	24a5ffff 	addiu	a1,a1,-1
10004060:	30a5ffff 	andi	a1,a1,0xffff
10004064:	14a00007 	bnez	a1,10004084 <rt_schedule+0x118>
10004068:	a4650032 	sh	a1,50(v1)
1000406c:	9465002c 	lhu	a1,44(v1)
10004070:	9464002e 	lhu	a0,46(v1)
10004074:	94620030 	lhu	v0,48(v1)
10004078:	a4650032 	sh	a1,50(v1)
1000407c:	a4640034 	sh	a0,52(v1)
10004080:	a4620036 	sh	v0,54(v1)
10004084:	26100001 	addiu	s0,s0,1
10004088:	1613ffc9 	bne	s0,s3,10003fb0 <rt_schedule+0x44>
1000408c:	00000000 	nop
10004090:	16a00014 	bnez	s5,100040e4 <rt_schedule+0x178>
10004094:	00151900 	sll	v1,s5,0x4
10004098:	3c021001 	lui	v0,0x1001
1000409c:	2442567c 	addiu	v0,v0,22140
100040a0:	ae221148 	sw	v0,4424(s1)
100040a4:	00001025 	move	v0,zero
100040a8:	8fbf002c 	lw	ra,44(sp)
100040ac:	8fb60028 	lw	s6,40(sp)
100040b0:	8fb50024 	lw	s5,36(sp)
100040b4:	8fb40020 	lw	s4,32(sp)
100040b8:	8fb3001c 	lw	s3,28(sp)
100040bc:	8fb20018 	lw	s2,24(sp)
100040c0:	8fb10014 	lw	s1,20(sp)
100040c4:	8fb00010 	lw	s0,16(sp)
100040c8:	03e00008 	jr	ra
100040cc:	27bd0030 	addiu	sp,sp,48
100040d0:	0c000ebe 	jal	10003af8 <panic>
100040d4:	24040006 	li	a0,6
100040d8:	8ec51148 	lw	a1,4424(s6)
100040dc:	08000ff2 	j	10003fc8 <rt_schedule+0x5c>
100040e0:	00000000 	nop
100040e4:	00151080 	sll	v0,s5,0x2
100040e8:	00431021 	addu	v0,v0,v1
100040ec:	00551023 	subu	v0,v0,s5
100040f0:	000218c0 	sll	v1,v0,0x3
100040f4:	3c021001 	lui	v0,0x1001
100040f8:	2442567c 	addiu	v0,v0,22140
100040fc:	00431021 	addu	v0,v0,v1
10004100:	8c430020 	lw	v1,32(v0)
10004104:	ae221148 	sw	v0,4424(s1)
10004108:	24630001 	addiu	v1,v1,1
1000410c:	ac430020 	sw	v1,32(v0)
10004110:	0800102a 	j	100040a8 <rt_schedule+0x13c>
10004114:	02a01025 	move	v0,s5
10004118:	08001026 	j	10004098 <rt_schedule+0x12c>
1000411c:	3c111009 	lui	s1,0x1009

10004120 <dispatch_isr>:
10004120:	27bdffc8 	addiu	sp,sp,-56
10004124:	afbf0034 	sw	ra,52(sp)
10004128:	afb60030 	sw	s6,48(sp)
1000412c:	afb5002c 	sw	s5,44(sp)
10004130:	afb40028 	sw	s4,40(sp)
10004134:	afb30024 	sw	s3,36(sp)
10004138:	afb20020 	sw	s2,32(sp)
1000413c:	afb1001c 	sw	s1,28(sp)
10004140:	0c000778 	jal	10001de0 <_timer_reset>
10004144:	afb00018 	sw	s0,24(sp)
10004148:	3c021009 	lui	v0,0x1009
1000414c:	94421160 	lhu	v0,4448(v0)
10004150:	00000000 	nop
10004154:	1440000b 	bnez	v0,10004184 <dispatch_isr+0x64>
10004158:	3c141009 	lui	s4,0x1009
1000415c:	8fbf0034 	lw	ra,52(sp)
10004160:	8fb60030 	lw	s6,48(sp)
10004164:	8fb5002c 	lw	s5,44(sp)
10004168:	8fb40028 	lw	s4,40(sp)
1000416c:	8fb30024 	lw	s3,36(sp)
10004170:	8fb20020 	lw	s2,32(sp)
10004174:	8fb1001c 	lw	s1,28(sp)
10004178:	8fb00018 	lw	s0,24(sp)
1000417c:	03e00008 	jr	ra
10004180:	27bd0038 	addiu	sp,sp,56
10004184:	96841144 	lhu	a0,4420(s4)
10004188:	3c131009 	lui	s3,0x1009
1000418c:	00041880 	sll	v1,a0,0x2
10004190:	00041100 	sll	v0,a0,0x4
10004194:	00621021 	addu	v0,v1,v0
10004198:	00441023 	subu	v0,v0,a0
1000419c:	000210c0 	sll	v0,v0,0x3
100041a0:	3c031001 	lui	v1,0x1001
100041a4:	2463567c 	addiu	v1,v1,22140
100041a8:	24440038 	addiu	a0,v0,56
100041ac:	00642021 	addu	a0,v1,a0
100041b0:	00621021 	addu	v0,v1,v0
100041b4:	0c00008f 	jal	1000023c <_context_save>
100041b8:	ae621148 	sw	v0,4424(s3)
100041bc:	1440ffe7 	bnez	v0,1000415c <dispatch_isr+0x3c>
100041c0:	24030002 	li	v1,2
100041c4:	8e621148 	lw	v0,4424(s3)
100041c8:	00000000 	nop
100041cc:	90440016 	lbu	a0,22(v0)
100041d0:	00000000 	nop
100041d4:	10830059 	beq	a0,v1,1000433c <dispatch_isr+0x21c>
100041d8:	24030001 	li	v1,1
100041dc:	8c42008c 	lw	v0,140(v0)
100041e0:	00000000 	nop
100041e4:	8c430000 	lw	v1,0(v0)
100041e8:	3c02b00b 	lui	v0,0xb00b
100041ec:	3442b00b 	ori	v0,v0,0xb00b
100041f0:	10620004 	beq	v1,v0,10004204 <dispatch_isr+0xe4>
100041f4:	3c021009 	lui	v0,0x1009
100041f8:	0c000ebe 	jal	10003af8 <panic>
100041fc:	24040002 	li	a0,2
10004200:	3c021009 	lui	v0,0x1009
10004204:	94421150 	lhu	v0,4432(v0)
10004208:	00000000 	nop
1000420c:	10400041 	beqz	v0,10004314 <dispatch_isr+0x1f4>
10004210:	24040003 	li	a0,3
10004214:	3c111009 	lui	s1,0x1009
10004218:	8e241164 	lw	a0,4452(s1)
1000421c:	0c000f4e 	jal	10003d38 <hf_queue_count>
10004220:	00008025 	move	s0,zero
10004224:	18400023 	blez	v0,100042b4 <dispatch_isr+0x194>
10004228:	00409025 	move	s2,v0
1000422c:	3c161009 	lui	s6,0x1009
10004230:	08001096 	j	10004258 <dispatch_isr+0x138>
10004234:	3c151009 	lui	s5,0x1009
10004238:	8ea4115c 	lw	a0,4444(s5)
1000423c:	0c000f51 	jal	10003d44 <hf_queue_addtail>
10004240:	00000000 	nop
10004244:	14400048 	bnez	v0,10004368 <dispatch_isr+0x248>
10004248:	00000000 	nop
1000424c:	26100001 	addiu	s0,s0,1
10004250:	12120018 	beq	s0,s2,100042b4 <dispatch_isr+0x194>
10004254:	00000000 	nop
10004258:	8e241164 	lw	a0,4452(s1)
1000425c:	0c000f67 	jal	10003d9c <hf_queue_remhead>
10004260:	00000000 	nop
10004264:	10400044 	beqz	v0,10004378 <dispatch_isr+0x258>
10004268:	00402825 	move	a1,v0
1000426c:	8ca3001c 	lw	v1,28(a1)
10004270:	00000000 	nop
10004274:	2463ffff 	addiu	v1,v1,-1
10004278:	14600032 	bnez	v1,10004344 <dispatch_isr+0x224>
1000427c:	aca3001c 	sw	v1,28(a1)
10004280:	94a2002c 	lhu	v0,44(a1)
10004284:	00000000 	nop
10004288:	1440ffeb 	bnez	v0,10004238 <dispatch_isr+0x118>
1000428c:	00000000 	nop
10004290:	8ec41158 	lw	a0,4440(s6)
10004294:	0c000f51 	jal	10003d44 <hf_queue_addtail>
10004298:	00000000 	nop
1000429c:	1040ffeb 	beqz	v0,1000424c <dispatch_isr+0x12c>
100042a0:	24040009 	li	a0,9
100042a4:	0c000ebe 	jal	10003af8 <panic>
100042a8:	26100001 	addiu	s0,s0,1
100042ac:	1612ffea 	bne	s0,s2,10004258 <dispatch_isr+0x138>
100042b0:	00000000 	nop
100042b4:	3c101009 	lui	s0,0x1009
100042b8:	8e02096c 	lw	v0,2412(s0)
100042bc:	00000000 	nop
100042c0:	0040f809 	jalr	v0
100042c4:	2610096c 	addiu	s0,s0,2412
100042c8:	3042ffff 	andi	v0,v0,0xffff
100042cc:	14400007 	bnez	v0,100042ec <dispatch_isr+0x1cc>
100042d0:	a6821144 	sh	v0,4420(s4)
100042d4:	8e020004 	lw	v0,4(s0)
100042d8:	00000000 	nop
100042dc:	0040f809 	jalr	v0
100042e0:	00000000 	nop
100042e4:	3c031009 	lui	v1,0x1009
100042e8:	a4621144 	sh	v0,4420(v1)
100042ec:	8e631148 	lw	v1,4424(s3)
100042f0:	8e02000c 	lw	v0,12(s0)
100042f4:	24050002 	li	a1,2
100042f8:	24420001 	addiu	v0,v0,1
100042fc:	24640038 	addiu	a0,v1,56
10004300:	a0650016 	sb	a1,22(v1)
10004304:	24050001 	li	a1,1
10004308:	0c00009d 	jal	10000274 <_context_restore>
1000430c:	ae02000c 	sw	v0,12(s0)
10004310:	240400ff 	li	a0,255
10004314:	8fbf0034 	lw	ra,52(sp)
10004318:	8fb60030 	lw	s6,48(sp)
1000431c:	8fb5002c 	lw	s5,44(sp)
10004320:	8fb40028 	lw	s4,40(sp)
10004324:	8fb30024 	lw	s3,36(sp)
10004328:	8fb20020 	lw	s2,32(sp)
1000432c:	8fb1001c 	lw	s1,28(sp)
10004330:	8fb00018 	lw	s0,24(sp)
10004334:	08000ebe 	j	10003af8 <panic>
10004338:	27bd0038 	addiu	sp,sp,56
1000433c:	08001077 	j	100041dc <dispatch_isr+0xbc>
10004340:	a0430016 	sb	v1,22(v0)
10004344:	8e241164 	lw	a0,4452(s1)
10004348:	0c000f51 	jal	10003d44 <hf_queue_addtail>
1000434c:	00000000 	nop
10004350:	1040ffbe 	beqz	v0,1000424c <dispatch_isr+0x12c>
10004354:	00000000 	nop
10004358:	0c000ebe 	jal	10003af8 <panic>
1000435c:	2404000a 	li	a0,10
10004360:	08001094 	j	10004250 <dispatch_isr+0x130>
10004364:	26100001 	addiu	s0,s0,1
10004368:	0c000ebe 	jal	10003af8 <panic>
1000436c:	2404000b 	li	a0,11
10004370:	08001094 	j	10004250 <dispatch_isr+0x130>
10004374:	26100001 	addiu	s0,s0,1
10004378:	24040007 	li	a0,7
1000437c:	0c000ebe 	jal	10003af8 <panic>
10004380:	afa20010 	sw	v0,16(sp)
10004384:	8fa50010 	lw	a1,16(sp)
10004388:	0800109b 	j	1000426c <dispatch_isr+0x14c>
1000438c:	00000000 	nop

10004390 <sched_priorityrr>:
10004390:	3c021009 	lui	v0,0x1009
10004394:	8c441158 	lw	a0,4440(v0)
10004398:	27bdffd0 	addiu	sp,sp,-48
1000439c:	afb2001c 	sw	s2,28(sp)
100043a0:	afbf002c 	sw	ra,44(sp)
100043a4:	afb50028 	sw	s5,40(sp)
100043a8:	afb40024 	sw	s4,36(sp)
100043ac:	afb30020 	sw	s3,32(sp)
100043b0:	afb10018 	sw	s1,24(sp)
100043b4:	0c000f4e 	jal	10003d38 <hf_queue_count>
100043b8:	afb00014 	sw	s0,20(sp)
100043bc:	10400046 	beqz	v0,100044d8 <sched_priorityrr+0x148>
100043c0:	00409025 	move	s2,v0
100043c4:	0c000fbc 	jal	10003ef0 <run_queue_next>
100043c8:	00000000 	nop
100043cc:	1a400046 	blez	s2,100044e8 <sched_priorityrr+0x158>
100043d0:	241400ff 	li	s4,255
100043d4:	00008825 	move	s1,zero
100043d8:	00008025 	move	s0,zero
100043dc:	3c131009 	lui	s3,0x1009
100043e0:	24150003 	li	s5,3
100043e4:	0c000fbc 	jal	10003ef0 <run_queue_next>
100043e8:	26100001 	addiu	s0,s0,1
100043ec:	8e631148 	lw	v1,4424(s3)
100043f0:	00000000 	nop
100043f4:	90640019 	lbu	a0,25(v1)
100043f8:	00000000 	nop
100043fc:	10800025 	beqz	a0,10004494 <sched_priorityrr+0x104>
10004400:	00000000 	nop
10004404:	90620016 	lbu	v0,22(v1)
10004408:	00000000 	nop
1000440c:	1455002f 	bne	v0,s5,100044cc <sched_priorityrr+0x13c>
10004410:	00000000 	nop
10004414:	1612fff3 	bne	s0,s2,100043e4 <sched_priorityrr+0x54>
10004418:	00000000 	nop
1000441c:	00008025 	move	s0,zero
10004420:	0c000fbc 	jal	10003ef0 <run_queue_next>
10004424:	26100001 	addiu	s0,s0,1
10004428:	8e621148 	lw	v0,4424(s3)
1000442c:	00000000 	nop
10004430:	12220006 	beq	s1,v0,1000444c <sched_priorityrr+0xbc>
10004434:	0212202a 	slt	a0,s0,s2
10004438:	90430018 	lbu	v1,24(v0)
1000443c:	92250018 	lbu	a1,24(s1)
10004440:	00000000 	nop
10004444:	00651823 	subu	v1,v1,a1
10004448:	a0430018 	sb	v1,24(v0)
1000444c:	1480fff4 	bnez	a0,10004420 <sched_priorityrr+0x90>
10004450:	00000000 	nop
10004454:	92220017 	lbu	v0,23(s1)
10004458:	ae711148 	sw	s1,4424(s3)
1000445c:	a2220018 	sb	v0,24(s1)
10004460:	8e230024 	lw	v1,36(s1)
10004464:	8fbf002c 	lw	ra,44(sp)
10004468:	24630001 	addiu	v1,v1,1
1000446c:	96220000 	lhu	v0,0(s1)
10004470:	ae230024 	sw	v1,36(s1)
10004474:	8fb50028 	lw	s5,40(sp)
10004478:	8fb40024 	lw	s4,36(sp)
1000447c:	8fb30020 	lw	s3,32(sp)
10004480:	8fb2001c 	lw	s2,28(sp)
10004484:	8fb10018 	lw	s1,24(sp)
10004488:	8fb00014 	lw	s0,20(sp)
1000448c:	03e00008 	jr	ra
10004490:	27bd0030 	addiu	sp,sp,48
10004494:	90640018 	lbu	a0,24(v1)
10004498:	00000000 	nop
1000449c:	0094102b 	sltu	v0,a0,s4
100044a0:	1040ffdc 	beqz	v0,10004414 <sched_priorityrr+0x84>
100044a4:	00000000 	nop
100044a8:	90620016 	lbu	v0,22(v1)
100044ac:	00000000 	nop
100044b0:	1055ffd8 	beq	v0,s5,10004414 <sched_priorityrr+0x84>
100044b4:	00000000 	nop
100044b8:	00608825 	move	s1,v1
100044bc:	1612ffc9 	bne	s0,s2,100043e4 <sched_priorityrr+0x54>
100044c0:	0080a025 	move	s4,a0
100044c4:	08001108 	j	10004420 <sched_priorityrr+0x90>
100044c8:	00008025 	move	s0,zero
100044cc:	00608825 	move	s1,v1
100044d0:	08001118 	j	10004460 <sched_priorityrr+0xd0>
100044d4:	a0600019 	sb	zero,25(v1)
100044d8:	0c000ebe 	jal	10003af8 <panic>
100044dc:	24040005 	li	a0,5
100044e0:	0c000fbc 	jal	10003ef0 <run_queue_next>
100044e4:	00000000 	nop
100044e8:	00008825 	move	s1,zero
100044ec:	08001115 	j	10004454 <sched_priorityrr+0xc4>
100044f0:	3c131009 	lui	s3,0x1009

100044f4 <sched_edf>:
100044f4:	27bdffc8 	addiu	sp,sp,-56
100044f8:	afb10018 	sw	s1,24(sp)
100044fc:	3c111009 	lui	s1,0x1009
10004500:	8e24115c 	lw	a0,4444(s1)
10004504:	afb30020 	sw	s3,32(sp)
10004508:	afbf0034 	sw	ra,52(sp)
1000450c:	afb70030 	sw	s7,48(sp)
10004510:	afb6002c 	sw	s6,44(sp)
10004514:	afb50028 	sw	s5,40(sp)
10004518:	afb40024 	sw	s4,36(sp)
1000451c:	afb2001c 	sw	s2,28(sp)
10004520:	0c000f4e 	jal	10003d38 <hf_queue_count>
10004524:	afb00014 	sw	s0,20(sp)
10004528:	10400036 	beqz	v0,10004604 <sched_edf+0x110>
1000452c:	00409825 	move	s3,v0
10004530:	2456ffff 	addiu	s6,v0,-1
10004534:	00009025 	move	s2,zero
10004538:	0256102a 	slt	v0,s2,s6
1000453c:	10400024 	beqz	v0,100045d0 <sched_edf+0xdc>
10004540:	0220a825 	move	s5,s1
10004544:	26540001 	addiu	s4,s2,1
10004548:	0293102a 	slt	v0,s4,s3
1000454c:	14400006 	bnez	v0,10004568 <sched_edf+0x74>
10004550:	02808025 	move	s0,s4
10004554:	08001171 	j	100045c4 <sched_edf+0xd0>
10004558:	02809025 	move	s2,s4
1000455c:	26100001 	addiu	s0,s0,1
10004560:	12130017 	beq	s0,s3,100045c0 <sched_edf+0xcc>
10004564:	00000000 	nop
10004568:	8e24115c 	lw	a0,4444(s1)
1000456c:	0c000f7d 	jal	10003df4 <hf_queue_get>
10004570:	02402825 	move	a1,s2
10004574:	8e24115c 	lw	a0,4444(s1)
10004578:	02002825 	move	a1,s0
1000457c:	0c000f7d 	jal	10003df4 <hf_queue_get>
10004580:	0040b825 	move	s7,v0
10004584:	94440036 	lhu	a0,54(v0)
10004588:	96e30036 	lhu	v1,54(s7)
1000458c:	00000000 	nop
10004590:	0083182b 	sltu	v1,a0,v1
10004594:	1060fff1 	beqz	v1,1000455c <sched_edf+0x68>
10004598:	02003025 	move	a2,s0
1000459c:	8ea4115c 	lw	a0,4444(s5)
100045a0:	0c000f95 	jal	10003e54 <hf_queue_swap>
100045a4:	02402825 	move	a1,s2
100045a8:	1040ffec 	beqz	v0,1000455c <sched_edf+0x68>
100045ac:	2404000c 	li	a0,12
100045b0:	0c000ebe 	jal	10003af8 <panic>
100045b4:	26100001 	addiu	s0,s0,1
100045b8:	1613ffeb 	bne	s0,s3,10004568 <sched_edf+0x74>
100045bc:	00000000 	nop
100045c0:	02809025 	move	s2,s4
100045c4:	0256102a 	slt	v0,s2,s6
100045c8:	1440ffdf 	bnez	v0,10004548 <sched_edf+0x54>
100045cc:	26540001 	addiu	s4,s2,1
100045d0:	0c000fdb 	jal	10003f6c <rt_schedule>
100045d4:	02602025 	move	a0,s3
100045d8:	8fbf0034 	lw	ra,52(sp)
100045dc:	8fb70030 	lw	s7,48(sp)
100045e0:	8fb6002c 	lw	s6,44(sp)
100045e4:	8fb50028 	lw	s5,40(sp)
100045e8:	8fb40024 	lw	s4,36(sp)
100045ec:	8fb30020 	lw	s3,32(sp)
100045f0:	8fb2001c 	lw	s2,28(sp)
100045f4:	8fb10018 	lw	s1,24(sp)
100045f8:	8fb00014 	lw	s0,20(sp)
100045fc:	03e00008 	jr	ra
10004600:	27bd0038 	addiu	sp,sp,56
10004604:	08001176 	j	100045d8 <sched_edf+0xe4>
10004608:	00001025 	move	v0,zero

1000460c <hf_selfid>:
1000460c:	3c021009 	lui	v0,0x1009
10004610:	8c421148 	lw	v0,4424(v0)
10004614:	00000000 	nop
10004618:	94420000 	lhu	v0,0(v0)
1000461c:	03e00008 	jr	ra
10004620:	00000000 	nop

10004624 <hf_spawn>:
10004624:	27bdffa0 	addiu	sp,sp,-96
10004628:	afb40048 	sw	s4,72(sp)
1000462c:	afb00038 	sw	s0,56(sp)
10004630:	30d4ffff 	andi	s4,a2,0xffff
10004634:	30b0ffff 	andi	s0,a1,0xffff
10004638:	0214102b 	sltu	v0,s0,s4
1000463c:	afb5004c 	sw	s5,76(sp)
10004640:	afbf005c 	sw	ra,92(sp)
10004644:	afbe0058 	sw	s8,88(sp)
10004648:	afb70054 	sw	s7,84(sp)
1000464c:	afb60050 	sw	s6,80(sp)
10004650:	afb30044 	sw	s3,68(sp)
10004654:	afb20040 	sw	s2,64(sp)
10004658:	afb1003c 	sw	s1,60(sp)
1000465c:	30f5ffff 	andi	s5,a3,0xffff
10004660:	afa00028 	sw	zero,40(sp)
10004664:	14400098 	bnez	v0,100048c8 <hf_spawn+0x2a4>
10004668:	2402ff9b 	li	v0,-101
1000466c:	02b4102b 	sltu	v0,s5,s4
10004670:	144000ab 	bnez	v0,10004920 <hf_spawn+0x2fc>
10004674:	00808825 	move	s1,a0
10004678:	0c00007b 	jal	100001ec <_interrupt_set>
1000467c:	00002025 	move	a0,zero
10004680:	afa2002c 	sw	v0,44(sp)
10004684:	8fa40028 	lw	a0,40(sp)
10004688:	3c121001 	lui	s2,0x1001
1000468c:	00041880 	sll	v1,a0,0x2
10004690:	00041100 	sll	v0,a0,0x4
10004694:	00621021 	addu	v0,v1,v0
10004698:	00441023 	subu	v0,v0,a0
1000469c:	000210c0 	sll	v0,v0,0x3
100046a0:	2652567c 	addiu	s2,s2,22140
100046a4:	02421021 	addu	v0,s2,v0
100046a8:	8c420088 	lw	v0,136(v0)
100046ac:	00000000 	nop
100046b0:	14400013 	bnez	v0,10004700 <hf_spawn+0xdc>
100046b4:	00000000 	nop
100046b8:	080011c5 	j	10004714 <hf_spawn+0xf0>
100046bc:	00000000 	nop
100046c0:	8fa20028 	lw	v0,40(sp)
100046c4:	00000000 	nop
100046c8:	24420001 	addiu	v0,v0,1
100046cc:	afa20028 	sw	v0,40(sp)
100046d0:	8fa80028 	lw	t0,40(sp)
100046d4:	00000000 	nop
100046d8:	00081880 	sll	v1,t0,0x2
100046dc:	00081100 	sll	v0,t0,0x4
100046e0:	00621021 	addu	v0,v1,v0
100046e4:	00481023 	subu	v0,v0,t0
100046e8:	000210c0 	sll	v0,v0,0x3
100046ec:	02421021 	addu	v0,s2,v0
100046f0:	8c420088 	lw	v0,136(v0)
100046f4:	00000000 	nop
100046f8:	10400006 	beqz	v0,10004714 <hf_spawn+0xf0>
100046fc:	00000000 	nop
10004700:	8fa20028 	lw	v0,40(sp)
10004704:	00000000 	nop
10004708:	2c42001e 	sltiu	v0,v0,30
1000470c:	1440ffec 	bnez	v0,100046c0 <hf_spawn+0x9c>
10004710:	00000000 	nop
10004714:	8fa30028 	lw	v1,40(sp)
10004718:	2402001e 	li	v0,30
1000471c:	10620091 	beq	v1,v0,10004964 <hf_spawn+0x340>
10004720:	3c041000 	lui	a0,0x1000
10004724:	8fa40028 	lw	a0,40(sp)
10004728:	3c1e1009 	lui	s8,0x1009
1000472c:	00041880 	sll	v1,a0,0x2
10004730:	00041100 	sll	v0,a0,0x4
10004734:	00621021 	addu	v0,v1,v0
10004738:	00441023 	subu	v0,v0,a0
1000473c:	8fa70028 	lw	a3,40(sp)
10004740:	97c31150 	lhu	v1,4432(s8)
10004744:	000210c0 	sll	v0,v0,0x3
10004748:	02421021 	addu	v0,s2,v0
1000474c:	8fa50070 	lw	a1,112(sp)
10004750:	3c161009 	lui	s6,0x1009
10004754:	24060014 	li	a2,20
10004758:	24630001 	addiu	v1,v1,1
1000475c:	a4470000 	sh	a3,0(v0)
10004760:	24440002 	addiu	a0,v0,2
10004764:	a7c31150 	sh	v1,4432(s8)
10004768:	0c0009e5 	jal	10002794 <strncpy>
1000476c:	aec21148 	sw	v0,4424(s6)
10004770:	8fb70074 	lw	s7,116(sp)
10004774:	8ed31148 	lw	s3,4424(s6)
10004778:	26f70003 	addiu	s7,s7,3
1000477c:	0017b882 	srl	s7,s7,0x2
10004780:	0017b880 	sll	s7,s7,0x2
10004784:	24020064 	li	v0,100
10004788:	02e02025 	move	a0,s7
1000478c:	ae710088 	sw	s1,136(s3)
10004790:	a2600016 	sb	zero,22(s3)
10004794:	a2620017 	sb	v0,23(s3)
10004798:	a2620018 	sb	v0,24(s3)
1000479c:	ae60001c 	sw	zero,28(s3)
100047a0:	a670002c 	sh	s0,44(s3)
100047a4:	a674002e 	sh	s4,46(s3)
100047a8:	a6750030 	sh	s5,48(s3)
100047ac:	a6700032 	sh	s0,50(s3)
100047b0:	a6740034 	sh	s4,52(s3)
100047b4:	a6750036 	sh	s5,54(s3)
100047b8:	ae600020 	sw	zero,32(s3)
100047bc:	ae600024 	sw	zero,36(s3)
100047c0:	ae600028 	sw	zero,40(s3)
100047c4:	0c000afd 	jal	10002bf4 <hf_malloc>
100047c8:	ae770090 	sw	s7,144(s3)
100047cc:	8ec31148 	lw	v1,4424(s6)
100047d0:	ae62008c 	sw	v0,140(s3)
100047d4:	8c65008c 	lw	a1,140(v1)
100047d8:	94640000 	lhu	a0,0(v1)
100047dc:	24a5fffc 	addiu	a1,a1,-4
100047e0:	0c00072a 	jal	10001ca8 <_set_task_sp>
100047e4:	00b72821 	addu	a1,a1,s7
100047e8:	8ec21148 	lw	v0,4424(s6)
100047ec:	00000000 	nop
100047f0:	94440000 	lhu	a0,0(v0)
100047f4:	8c450088 	lw	a1,136(v0)
100047f8:	0c000741 	jal	10001d04 <_set_task_tp>
100047fc:	00000000 	nop
10004800:	8ed11148 	lw	s1,4424(s6)
10004804:	00000000 	nop
10004808:	8e23008c 	lw	v1,140(s1)
1000480c:	00000000 	nop
10004810:	10600045 	beqz	v1,10004928 <hf_spawn+0x304>
10004814:	3c041000 	lui	a0,0x1000
10004818:	96330000 	lhu	s3,0(s1)
1000481c:	3c02b00b 	lui	v0,0xb00b
10004820:	9625002e 	lhu	a1,46(s1)
10004824:	3442b00b 	ori	v0,v0,0xb00b
10004828:	9634002c 	lhu	s4,44(s1)
1000482c:	963e0030 	lhu	s8,48(s1)
10004830:	8e350088 	lw	s5,136(s1)
10004834:	02602025 	move	a0,s3
10004838:	ac620000 	sw	v0,0(v1)
1000483c:	0c000735 	jal	10001cd4 <_get_task_sp>
10004840:	afa50030 	sw	a1,48(sp)
10004844:	8fa50030 	lw	a1,48(sp)
10004848:	3c041000 	lui	a0,0x1000
1000484c:	afa50010 	sw	a1,16(sp)
10004850:	afbe0014 	sw	s8,20(sp)
10004854:	afb50018 	sw	s5,24(sp)
10004858:	afa2001c 	sw	v0,28(sp)
1000485c:	afb70020 	sw	s7,32(sp)
10004860:	248453e0 	addiu	a0,a0,21472
10004864:	26250002 	addiu	a1,s1,2
10004868:	02603025 	move	a2,s3
1000486c:	0c00080f 	jal	1000203c <kprintf>
10004870:	02803825 	move	a3,s4
10004874:	16000020 	bnez	s0,100048f8 <hf_spawn+0x2d4>
10004878:	3c021009 	lui	v0,0x1009
1000487c:	3c021009 	lui	v0,0x1009
10004880:	8c441158 	lw	a0,4440(v0)
10004884:	8ec51148 	lw	a1,4424(s6)
10004888:	0c000f51 	jal	10003d44 <hf_queue_addtail>
1000488c:	00000000 	nop
10004890:	14400030 	bnez	v0,10004954 <hf_spawn+0x330>
10004894:	00000000 	nop
10004898:	3c021009 	lui	v0,0x1009
1000489c:	94451144 	lhu	a1,4420(v0)
100048a0:	8fa4002c 	lw	a0,44(sp)
100048a4:	00051880 	sll	v1,a1,0x2
100048a8:	00051100 	sll	v0,a1,0x4
100048ac:	00621021 	addu	v0,v1,v0
100048b0:	00451023 	subu	v0,v0,a1
100048b4:	000210c0 	sll	v0,v0,0x3
100048b8:	02429021 	addu	s2,s2,v0
100048bc:	0c00007b 	jal	100001ec <_interrupt_set>
100048c0:	aed21148 	sw	s2,4424(s6)
100048c4:	8fa20028 	lw	v0,40(sp)
100048c8:	8fbf005c 	lw	ra,92(sp)
100048cc:	8fbe0058 	lw	s8,88(sp)
100048d0:	8fb70054 	lw	s7,84(sp)
100048d4:	8fb60050 	lw	s6,80(sp)
100048d8:	8fb5004c 	lw	s5,76(sp)
100048dc:	8fb40048 	lw	s4,72(sp)
100048e0:	8fb30044 	lw	s3,68(sp)
100048e4:	8fb20040 	lw	s2,64(sp)
100048e8:	8fb1003c 	lw	s1,60(sp)
100048ec:	8fb00038 	lw	s0,56(sp)
100048f0:	03e00008 	jr	ra
100048f4:	27bd0060 	addiu	sp,sp,96
100048f8:	8c44115c 	lw	a0,4444(v0)
100048fc:	8ec51148 	lw	a1,4424(s6)
10004900:	0c000f51 	jal	10003d44 <hf_queue_addtail>
10004904:	00000000 	nop
10004908:	1040ffe3 	beqz	v0,10004898 <hf_spawn+0x274>
1000490c:	00000000 	nop
10004910:	0c000ebe 	jal	10003af8 <panic>
10004914:	2404000b 	li	a0,11
10004918:	08001227 	j	1000489c <hf_spawn+0x278>
1000491c:	3c021009 	lui	v0,0x1009
10004920:	08001232 	j	100048c8 <hf_spawn+0x2a4>
10004924:	2402ff9b 	li	v0,-101
10004928:	97c21150 	lhu	v0,4432(s8)
1000492c:	00000000 	nop
10004930:	2442ffff 	addiu	v0,v0,-1
10004934:	ae200088 	sw	zero,136(s1)
10004938:	24845428 	addiu	a0,a0,21544
1000493c:	0c00080f 	jal	1000203c <kprintf>
10004940:	a7c21150 	sh	v0,4432(s8)
10004944:	2402ff98 	li	v0,-104
10004948:	afa20028 	sw	v0,40(sp)
1000494c:	08001227 	j	1000489c <hf_spawn+0x278>
10004950:	3c021009 	lui	v0,0x1009
10004954:	0c000ebe 	jal	10003af8 <panic>
10004958:	24040009 	li	a0,9
1000495c:	08001227 	j	1000489c <hf_spawn+0x278>
10004960:	3c021009 	lui	v0,0x1009
10004964:	248453b8 	addiu	a0,a0,21432
10004968:	0c00080f 	jal	1000203c <kprintf>
1000496c:	2405001e 	li	a1,30
10004970:	8fa4002c 	lw	a0,44(sp)
10004974:	0c00007b 	jal	100001ec <_interrupt_set>
10004978:	00000000 	nop
1000497c:	08001232 	j	100048c8 <hf_spawn+0x2a4>
10004980:	2402ff99 	li	v0,-103
